	.file	"F_Goblin.cpp"
	.text
.Ltext0:
	.file 0 "/mnt/c/Users/iliyian/Dropbox/CompetitiveProgramming/codeforces.com/2106" "F_Goblin.cpp"
	.section	.text._ZnwmPv,"axG",@progbits,_ZnwmPv,comdat
	.weak	_ZnwmPv
	.type	_ZnwmPv, @function
_ZnwmPv:
.LFB471:
	.file 1 "/usr/include/c++/13/new"
	.loc 1 175 1
	.cfi_startproc
	endbr64
	pushq	%rbp
	.cfi_def_cfa_offset 16
	.cfi_offset 6, -16
	movq	%rsp, %rbp
	.cfi_def_cfa_register 6
	movq	%rdi, -8(%rbp)
	movq	%rsi, -16(%rbp)
	.loc 1 175 10
	movq	-16(%rbp), %rax
	.loc 1 175 15
	popq	%rbp
	.cfi_def_cfa 7, 8
	ret
	.cfi_endproc
.LFE471:
	.size	_ZnwmPv, .-_ZnwmPv
	.section	.text._ZSt3minImERKT_S2_S2_,"axG",@progbits,_ZSt3minImERKT_S2_S2_,comdat
	.weak	_ZSt3minImERKT_S2_S2_
	.type	_ZSt3minImERKT_S2_S2_, @function
_ZSt3minImERKT_S2_S2_:
.LFB1923:
	.file 2 "/usr/include/c++/13/bits/stl_algobase.h"
	.loc 2 233 5
	.cfi_startproc
	endbr64
	pushq	%rbp
	.cfi_def_cfa_offset 16
	.cfi_offset 6, -16
	movq	%rsp, %rbp
	.cfi_def_cfa_register 6
	movq	%rdi, -8(%rbp)
	movq	%rsi, -16(%rbp)
	.loc 2 238 15
	movq	-16(%rbp), %rax
	movq	(%rax), %rdx
	movq	-8(%rbp), %rax
	movq	(%rax), %rax
	.loc 2 238 7
	cmpq	%rax, %rdx
	jnb	.L4
	.loc 2 239 9
	movq	-16(%rbp), %rax
	jmp	.L5
.L4:
	.loc 2 240 14
	movq	-8(%rbp), %rax
.L5:
	.loc 2 241 5
	popq	%rbp
	.cfi_def_cfa 7, 8
	ret
	.cfi_endproc
.LFE1923:
	.size	_ZSt3minImERKT_S2_S2_, .-_ZSt3minImERKT_S2_S2_
#APP
	.globl _ZSt21ios_base_library_initv
#NO_APP
	.section	.text._ZNSt12_Vector_baseISt5arrayIxLm2EESaIS1_EE12_Vector_implD2Ev,"axG",@progbits,_ZNSt12_Vector_baseISt5arrayIxLm2EESaIS1_EE12_Vector_implD5Ev,comdat
	.align 2
	.weak	_ZNSt12_Vector_baseISt5arrayIxLm2EESaIS1_EE12_Vector_implD2Ev
	.type	_ZNSt12_Vector_baseISt5arrayIxLm2EESaIS1_EE12_Vector_implD2Ev, @function
_ZNSt12_Vector_baseISt5arrayIxLm2EESaIS1_EE12_Vector_implD2Ev:
.LFB9775:
	.file 3 "/usr/include/c++/13/bits/stl_vector.h"
	.loc 3 133 14
	.cfi_startproc
	endbr64
	pushq	%rbp
	.cfi_def_cfa_offset 16
	.cfi_offset 6, -16
	movq	%rsp, %rbp
	.cfi_def_cfa_register 6
	subq	$32, %rsp
	movq	%rdi, -24(%rbp)
	movq	-24(%rbp), %rax
	movq	%rax, -8(%rbp)
.LBB124:
.LBB125:
.LBB126:
.LBB127:
	.file 4 "/usr/include/c++/13/bits/allocator.h"
	.loc 4 184 39
	movq	-8(%rbp), %rax
	movq	%rax, %rdi
	call	_ZNSt15__new_allocatorISt5arrayIxLm2EEED2Ev
.LBE127:
	nop
.LBE126:
.LBE125:
.LBE124:
	.loc 3 133 14
	nop
	leave
	.cfi_def_cfa 7, 8
	ret
	.cfi_endproc
.LFE9775:
	.size	_ZNSt12_Vector_baseISt5arrayIxLm2EESaIS1_EE12_Vector_implD2Ev, .-_ZNSt12_Vector_baseISt5arrayIxLm2EESaIS1_EE12_Vector_implD2Ev
	.weak	_ZNSt12_Vector_baseISt5arrayIxLm2EESaIS1_EE12_Vector_implD1Ev
	.set	_ZNSt12_Vector_baseISt5arrayIxLm2EESaIS1_EE12_Vector_implD1Ev,_ZNSt12_Vector_baseISt5arrayIxLm2EESaIS1_EE12_Vector_implD2Ev
	.section	.text._ZNSt12_Vector_baseISt5arrayIxLm2EESaIS1_EEC2Ev,"axG",@progbits,_ZNSt12_Vector_baseISt5arrayIxLm2EESaIS1_EEC5Ev,comdat
	.align 2
	.weak	_ZNSt12_Vector_baseISt5arrayIxLm2EESaIS1_EEC2Ev
	.type	_ZNSt12_Vector_baseISt5arrayIxLm2EESaIS1_EEC2Ev, @function
_ZNSt12_Vector_baseISt5arrayIxLm2EESaIS1_EEC2Ev:
.LFB9777:
	.loc 3 315 7
	.cfi_startproc
	endbr64
	pushq	%rbp
	.cfi_def_cfa_offset 16
	.cfi_offset 6, -16
	movq	%rsp, %rbp
	.cfi_def_cfa_register 6
	subq	$16, %rsp
	movq	%rdi, -8(%rbp)
.LBB128:
	.loc 3 315 7
	movq	-8(%rbp), %rax
	movq	%rax, %rdi
	call	_ZNSt12_Vector_baseISt5arrayIxLm2EESaIS1_EE12_Vector_implC1Ev
.LBE128:
	nop
	leave
	.cfi_def_cfa 7, 8
	ret
	.cfi_endproc
.LFE9777:
	.size	_ZNSt12_Vector_baseISt5arrayIxLm2EESaIS1_EEC2Ev, .-_ZNSt12_Vector_baseISt5arrayIxLm2EESaIS1_EEC2Ev
	.weak	_ZNSt12_Vector_baseISt5arrayIxLm2EESaIS1_EEC1Ev
	.set	_ZNSt12_Vector_baseISt5arrayIxLm2EESaIS1_EEC1Ev,_ZNSt12_Vector_baseISt5arrayIxLm2EESaIS1_EEC2Ev
	.section	.text._ZNSt6vectorISt5arrayIxLm2EESaIS1_EEC2Ev,"axG",@progbits,_ZNSt6vectorISt5arrayIxLm2EESaIS1_EEC5Ev,comdat
	.align 2
	.weak	_ZNSt6vectorISt5arrayIxLm2EESaIS1_EEC2Ev
	.type	_ZNSt6vectorISt5arrayIxLm2EESaIS1_EEC2Ev, @function
_ZNSt6vectorISt5arrayIxLm2EESaIS1_EEC2Ev:
.LFB9779:
	.loc 3 531 7
	.cfi_startproc
	endbr64
	pushq	%rbp
	.cfi_def_cfa_offset 16
	.cfi_offset 6, -16
	movq	%rsp, %rbp
	.cfi_def_cfa_register 6
	subq	$16, %rsp
	movq	%rdi, -8(%rbp)
.LBB129:
	.loc 3 531 7
	movq	-8(%rbp), %rax
	movq	%rax, %rdi
	call	_ZNSt12_Vector_baseISt5arrayIxLm2EESaIS1_EEC2Ev
.LBE129:
	nop
	leave
	.cfi_def_cfa 7, 8
	ret
	.cfi_endproc
.LFE9779:
	.size	_ZNSt6vectorISt5arrayIxLm2EESaIS1_EEC2Ev, .-_ZNSt6vectorISt5arrayIxLm2EESaIS1_EEC2Ev
	.weak	_ZNSt6vectorISt5arrayIxLm2EESaIS1_EEC1Ev
	.set	_ZNSt6vectorISt5arrayIxLm2EESaIS1_EEC1Ev,_ZNSt6vectorISt5arrayIxLm2EESaIS1_EEC2Ev
	.section	.text._ZSt3getILm0ExLm2EEOT0_OSt5arrayIS0_XT1_EE,"axG",@progbits,_ZSt3getILm0ExLm2EEOT0_OSt5arrayIS0_XT1_EE,comdat
	.weak	_ZSt3getILm0ExLm2EEOT0_OSt5arrayIS0_XT1_EE
	.type	_ZSt3getILm0ExLm2EEOT0_OSt5arrayIS0_XT1_EE, @function
_ZSt3getILm0ExLm2EEOT0_OSt5arrayIS0_XT1_EE:
.LFB9782:
	.file 5 "/usr/include/c++/13/array"
	.loc 5 393 5
	.cfi_startproc
	endbr64
	pushq	%rbp
	.cfi_def_cfa_offset 16
	.cfi_offset 6, -16
	movq	%rsp, %rbp
	.cfi_def_cfa_register 6
	subq	$16, %rsp
	movq	%rdi, -8(%rbp)
	.loc 5 396 23
	movq	-8(%rbp), %rax
	movq	%rax, %rdi
	call	_ZSt3getILm0ExLm2EERT0_RSt5arrayIS0_XT1_EE
	.loc 5 396 23 is_stmt 0 discriminator 1
	movq	%rax, %rdi
	call	_ZSt4moveIRxEONSt16remove_referenceIT_E4typeEOS2_
	.loc 5 397 5 is_stmt 1
	leave
	.cfi_def_cfa 7, 8
	ret
	.cfi_endproc
.LFE9782:
	.size	_ZSt3getILm0ExLm2EEOT0_OSt5arrayIS0_XT1_EE, .-_ZSt3getILm0ExLm2EEOT0_OSt5arrayIS0_XT1_EE
	.section	.text._ZSt3getILm0ExLm2EERT0_RSt5arrayIS0_XT1_EE,"axG",@progbits,_ZSt3getILm0ExLm2EERT0_RSt5arrayIS0_XT1_EE,comdat
	.weak	_ZSt3getILm0ExLm2EERT0_RSt5arrayIS0_XT1_EE
	.type	_ZSt3getILm0ExLm2EERT0_RSt5arrayIS0_XT1_EE, @function
_ZSt3getILm0ExLm2EERT0_RSt5arrayIS0_XT1_EE:
.LFB9783:
	.loc 5 384 5
	.cfi_startproc
	endbr64
	pushq	%rbp
	.cfi_def_cfa_offset 16
	.cfi_offset 6, -16
	movq	%rsp, %rbp
	.cfi_def_cfa_register 6
	movq	%rdi, -8(%rbp)
	.loc 5 387 33
	movq	-8(%rbp), %rax
	.loc 5 388 5
	popq	%rbp
	.cfi_def_cfa 7, 8
	ret
	.cfi_endproc
.LFE9783:
	.size	_ZSt3getILm0ExLm2EERT0_RSt5arrayIS0_XT1_EE, .-_ZSt3getILm0ExLm2EERT0_RSt5arrayIS0_XT1_EE
	.section	.text._ZSt4moveIRxEONSt16remove_referenceIT_E4typeEOS2_,"axG",@progbits,_ZSt4moveIRxEONSt16remove_referenceIT_E4typeEOS2_,comdat
	.weak	_ZSt4moveIRxEONSt16remove_referenceIT_E4typeEOS2_
	.type	_ZSt4moveIRxEONSt16remove_referenceIT_E4typeEOS2_, @function
_ZSt4moveIRxEONSt16remove_referenceIT_E4typeEOS2_:
.LFB9784:
	.file 6 "/usr/include/c++/13/bits/move.h"
	.loc 6 97 5
	.cfi_startproc
	endbr64
	pushq	%rbp
	.cfi_def_cfa_offset 16
	.cfi_offset 6, -16
	movq	%rsp, %rbp
	.cfi_def_cfa_register 6
	movq	%rdi, -8(%rbp)
	.loc 6 98 74
	movq	-8(%rbp), %rax
	.loc 6 98 77
	popq	%rbp
	.cfi_def_cfa 7, 8
	ret
	.cfi_endproc
.LFE9784:
	.size	_ZSt4moveIRxEONSt16remove_referenceIT_E4typeEOS2_, .-_ZSt4moveIRxEONSt16remove_referenceIT_E4typeEOS2_
	.section	.text._ZSt3getILm1ExLm2EEOT0_OSt5arrayIS0_XT1_EE,"axG",@progbits,_ZSt3getILm1ExLm2EEOT0_OSt5arrayIS0_XT1_EE,comdat
	.weak	_ZSt3getILm1ExLm2EEOT0_OSt5arrayIS0_XT1_EE
	.type	_ZSt3getILm1ExLm2EEOT0_OSt5arrayIS0_XT1_EE, @function
_ZSt3getILm1ExLm2EEOT0_OSt5arrayIS0_XT1_EE:
.LFB9785:
	.loc 5 393 5
	.cfi_startproc
	endbr64
	pushq	%rbp
	.cfi_def_cfa_offset 16
	.cfi_offset 6, -16
	movq	%rsp, %rbp
	.cfi_def_cfa_register 6
	subq	$16, %rsp
	movq	%rdi, -8(%rbp)
	.loc 5 396 23
	movq	-8(%rbp), %rax
	movq	%rax, %rdi
	call	_ZSt3getILm1ExLm2EERT0_RSt5arrayIS0_XT1_EE
	.loc 5 396 23 is_stmt 0 discriminator 1
	movq	%rax, %rdi
	call	_ZSt4moveIRxEONSt16remove_referenceIT_E4typeEOS2_
	.loc 5 397 5 is_stmt 1
	leave
	.cfi_def_cfa 7, 8
	ret
	.cfi_endproc
.LFE9785:
	.size	_ZSt3getILm1ExLm2EEOT0_OSt5arrayIS0_XT1_EE, .-_ZSt3getILm1ExLm2EEOT0_OSt5arrayIS0_XT1_EE
	.section	.text._ZSt3getILm1ExLm2EERT0_RSt5arrayIS0_XT1_EE,"axG",@progbits,_ZSt3getILm1ExLm2EERT0_RSt5arrayIS0_XT1_EE,comdat
	.weak	_ZSt3getILm1ExLm2EERT0_RSt5arrayIS0_XT1_EE
	.type	_ZSt3getILm1ExLm2EERT0_RSt5arrayIS0_XT1_EE, @function
_ZSt3getILm1ExLm2EERT0_RSt5arrayIS0_XT1_EE:
.LFB9786:
	.loc 5 384 5
	.cfi_startproc
	endbr64
	pushq	%rbp
	.cfi_def_cfa_offset 16
	.cfi_offset 6, -16
	movq	%rsp, %rbp
	.cfi_def_cfa_register 6
	movq	%rdi, -8(%rbp)
	.loc 5 387 33
	movq	-8(%rbp), %rax
	addq	$8, %rax
	.loc 5 388 5
	popq	%rbp
	.cfi_def_cfa 7, 8
	ret
	.cfi_endproc
.LFE9786:
	.size	_ZSt3getILm1ExLm2EERT0_RSt5arrayIS0_XT1_EE, .-_ZSt3getILm1ExLm2EERT0_RSt5arrayIS0_XT1_EE
	.text
	.align 2
	.type	_ZZ5solvevENKUlxE_clEx, @function
_ZZ5solvevENKUlxE_clEx:
.LFB9781:
	.file 7 "F_Goblin.cpp"
	.loc 7 22 15
	.cfi_startproc
	pushq	%rbp
	.cfi_def_cfa_offset 16
	.cfi_offset 6, -16
	movq	%rsp, %rbp
	.cfi_def_cfa_register 6
	subq	$64, %rsp
	movq	%rdi, -56(%rbp)
	movq	%rsi, -64(%rbp)
	.loc 7 22 15
	movq	%fs:40, %rax
	movq	%rax, -8(%rbp)
	xorl	%eax, %eax
.LBB130:
	.loc 7 23 22
	movq	-56(%rbp), %rax
	movq	(%rax), %rax
	movq	-64(%rbp), %rdx
	movq	%rdx, %rsi
	movq	%rax, %rdi
	call	_ZNSt6vectorISt5arrayIxLm2EESaIS1_EEixEm
	.loc 7 23 22 is_stmt 0 discriminator 1
	movq	8(%rax), %rdx
	movq	(%rax), %rax
	movq	%rax, -32(%rbp)
	movq	%rdx, -24(%rbp)
	.loc 7 23 11 is_stmt 1 discriminator 1
	leaq	-32(%rbp), %rax
	movq	%rax, %rdi
	call	_ZSt3getILm0ExLm2EEOT0_OSt5arrayIS0_XT1_EE
	movq	%rax, -48(%rbp)
	.loc 7 23 14 discriminator 2
	leaq	-32(%rbp), %rax
	movq	%rax, %rdi
	call	_ZSt3getILm1ExLm2EEOT0_OSt5arrayIS0_XT1_EE
	movq	%rax, -40(%rbp)
	.loc 7 24 13
	movq	-48(%rbp), %rax
	movq	(%rax), %rax
	.loc 7 24 15
	leaq	-1(%rax), %rdx
	.loc 7 24 23
	movq	-40(%rbp), %rax
	movq	(%rax), %rcx
	.loc 7 24 27
	movq	-48(%rbp), %rax
	movq	(%rax), %rax
	.loc 7 24 25
	subq	%rax, %rcx
	.loc 7 24 29
	leaq	1(%rcx), %rax
	.loc 7 24 20
	imulq	%rax, %rdx
	.loc 7 24 37
	movq	-40(%rbp), %rax
	movq	(%rax), %rcx
	.loc 7 24 41
	movq	-48(%rbp), %rax
	movq	(%rax), %rax
	.loc 7 24 39
	subq	%rax, %rcx
	.loc 7 24 43
	leaq	1(%rcx), %rsi
	.loc 7 24 51
	movq	-40(%rbp), %rax
	movq	(%rax), %rcx
	.loc 7 24 55
	movq	-48(%rbp), %rax
	movq	(%rax), %rax
	.loc 7 24 53
	subq	%rax, %rcx
	.loc 7 24 48
	movq	%rsi, %rax
	imulq	%rcx, %rax
	.loc 7 24 58
	movq	%rax, %rcx
	shrq	$63, %rcx
	addq	%rcx, %rax
	sarq	%rax
	.loc 7 24 60
	addq	%rdx, %rax
.LBE130:
	.loc 7 25 3
	movq	-8(%rbp), %rdx
	subq	%fs:40, %rdx
	je	.L21
	call	__stack_chk_fail@PLT
.L21:
	leave
	.cfi_def_cfa 7, 8
	ret
	.cfi_endproc
.LFE9781:
	.size	_ZZ5solvevENKUlxE_clEx, .-_ZZ5solvevENKUlxE_clEx
	.align 2
	.type	_ZZ5solvevENKUlxE0_clEx, @function
_ZZ5solvevENKUlxE0_clEx:
.LFB9787:
	.loc 7 26 15
	.cfi_startproc
	pushq	%rbp
	.cfi_def_cfa_offset 16
	.cfi_offset 6, -16
	movq	%rsp, %rbp
	.cfi_def_cfa_register 6
	subq	$64, %rsp
	movq	%rdi, -56(%rbp)
	movq	%rsi, -64(%rbp)
	.loc 7 26 15
	movq	%fs:40, %rax
	movq	%rax, -8(%rbp)
	xorl	%eax, %eax
.LBB131:
	.loc 7 27 22
	movq	-56(%rbp), %rax
	movq	(%rax), %rax
	movq	-64(%rbp), %rdx
	movq	%rdx, %rsi
	movq	%rax, %rdi
	call	_ZNSt6vectorISt5arrayIxLm2EESaIS1_EEixEm
	.loc 7 27 22 is_stmt 0 discriminator 1
	movq	8(%rax), %rdx
	movq	(%rax), %rax
	movq	%rax, -32(%rbp)
	movq	%rdx, -24(%rbp)
	.loc 7 27 11 is_stmt 1 discriminator 1
	leaq	-32(%rbp), %rax
	movq	%rax, %rdi
	call	_ZSt3getILm0ExLm2EEOT0_OSt5arrayIS0_XT1_EE
	movq	%rax, -48(%rbp)
	.loc 7 27 14 discriminator 2
	leaq	-32(%rbp), %rax
	movq	%rax, %rdi
	call	_ZSt3getILm1ExLm2EEOT0_OSt5arrayIS0_XT1_EE
	movq	%rax, -40(%rbp)
	.loc 7 28 13
	movq	-56(%rbp), %rax
	movq	8(%rax), %rax
	movq	(%rax), %rdx
	.loc 7 28 17
	movq	-40(%rbp), %rax
	movq	(%rax), %rax
	.loc 7 28 15
	subq	%rax, %rdx
	.loc 7 28 23
	movq	-40(%rbp), %rax
	movq	(%rax), %rcx
	.loc 7 28 27
	movq	-48(%rbp), %rax
	movq	(%rax), %rax
	.loc 7 28 25
	subq	%rax, %rcx
	.loc 7 28 29
	leaq	1(%rcx), %rax
	.loc 7 28 20
	imulq	%rax, %rdx
	.loc 7 28 37
	movq	-40(%rbp), %rax
	movq	(%rax), %rcx
	.loc 7 28 41
	movq	-48(%rbp), %rax
	movq	(%rax), %rax
	.loc 7 28 39
	subq	%rax, %rcx
	.loc 7 28 43
	leaq	1(%rcx), %rsi
	.loc 7 28 51
	movq	-40(%rbp), %rax
	movq	(%rax), %rcx
	.loc 7 28 55
	movq	-48(%rbp), %rax
	movq	(%rax), %rax
	.loc 7 28 53
	subq	%rax, %rcx
	.loc 7 28 48
	movq	%rsi, %rax
	imulq	%rcx, %rax
	.loc 7 28 58
	movq	%rax, %rcx
	shrq	$63, %rcx
	addq	%rcx, %rax
	sarq	%rax
	.loc 7 28 60
	addq	%rdx, %rax
.LBE131:
	.loc 7 29 3
	movq	-8(%rbp), %rdx
	subq	%fs:40, %rdx
	je	.L24
	call	__stack_chk_fail@PLT
.L24:
	leave
	.cfi_def_cfa 7, 8
	ret
	.cfi_endproc
.LFE9787:
	.size	_ZZ5solvevENKUlxE0_clEx, .-_ZZ5solvevENKUlxE0_clEx
	.globl	_Z5solvev
	.type	_Z5solvev, @function
_Z5solvev:
.LFB9770:
	.loc 7 4 14
	.cfi_startproc
	.cfi_personality 0x9b,DW.ref.__gxx_personality_v0
	.cfi_lsda 0x1b,.LLSDA9770
	endbr64
	pushq	%rbp
	.cfi_def_cfa_offset 16
	.cfi_offset 6, -16
	movq	%rsp, %rbp
	.cfi_def_cfa_register 6
	pushq	%rbx
	subq	$216, %rsp
	.cfi_offset 3, -24
	.loc 7 4 14
	movq	%fs:40, %rax
	movq	%rax, -24(%rbp)
	xorl	%eax, %eax
	.loc 7 6 15
	leaq	-216(%rbp), %rax
	movq	%rax, %rsi
	leaq	_ZSt3cin(%rip), %rax
	movq	%rax, %rdi
.LEHB0:
	call	_ZNSirsERx@PLT
.LEHE0:
	.loc 7 7 15
	leaq	-96(%rbp), %rax
	movq	%rax, %rdi
	call	_ZNSt7__cxx1112basic_stringIcSt11char_traitsIcESaIcEEC1Ev@PLT
	.loc 7 8 15
	leaq	-96(%rbp), %rax
	movq	%rax, %rsi
	leaq	_ZSt3cin(%rip), %rax
	movq	%rax, %rdi
.LEHB1:
	call	_ZStrsIcSt11char_traitsIcESaIcEERSt13basic_istreamIT_T0_ES7_RNSt7__cxx1112basic_stringIS4_S5_T1_EE@PLT
	.loc 7 9 13
	leaq	-64(%rbp), %rax
	leaq	-96(%rbp), %rdx
	movl	$35, %esi
	movq	%rax, %rdi
	call	_ZStplIcSt11char_traitsIcESaIcEENSt7__cxx1112basic_stringIT_T0_T1_EES5_RKS8_
.LEHE1:
	.loc 7 9 15 discriminator 2
	leaq	-64(%rbp), %rdx
	leaq	-96(%rbp), %rax
	movq	%rdx, %rsi
	movq	%rax, %rdi
	call	_ZNSt7__cxx1112basic_stringIcSt11char_traitsIcESaIcEEaSEOS4_@PLT
	.loc 7 9 13 discriminator 1
	leaq	-64(%rbp), %rax
	movq	%rax, %rdi
	call	_ZNSt7__cxx1112basic_stringIcSt11char_traitsIcESaIcEED1Ev@PLT
	.loc 7 10 7
	movq	$1, -184(%rbp)
	.loc 7 11 35
	leaq	-128(%rbp), %rax
	movq	%rax, %rdi
	call	_ZNSt6vectorISt5arrayIxLm2EESaIS1_EEC1Ev
.LBB132:
	.loc 7 12 12
	movq	$2, -176(%rbp)
	.loc 7 12 3
	jmp	.L26
.L31:
	.loc 7 13 16
	movq	-216(%rbp), %rax
	addq	$1, %rax
	.loc 7 13 20
	cmpq	%rax, -176(%rbp)
	je	.L27
	.loc 7 13 28 discriminator 2
	movq	-176(%rbp), %rdx
	leaq	-96(%rbp), %rax
	movq	%rdx, %rsi
	movq	%rax, %rdi
.LEHB2:
	call	_ZNSt7__cxx1112basic_stringIcSt11char_traitsIcESaIcEEixEm@PLT
	.loc 7 13 30 discriminator 3
	movzbl	(%rax), %ebx
	.loc 7 13 39 discriminator 3
	movq	-176(%rbp), %rax
	subq	$1, %rax
	.loc 7 13 42 discriminator 3
	movq	%rax, %rdx
	leaq	-96(%rbp), %rax
	movq	%rdx, %rsi
	movq	%rax, %rdi
	call	_ZNSt7__cxx1112basic_stringIcSt11char_traitsIcESaIcEEixEm@PLT
	.loc 7 13 30 discriminator 4
	movzbl	(%rax), %eax
	.loc 7 13 20 discriminator 4
	cmpb	%al, %bl
	je	.L28
.L27:
	.loc 7 13 20 is_stmt 0 discriminator 5
	movl	$1, %eax
	.loc 7 13 20
	jmp	.L29
.L28:
	.loc 7 13 20 discriminator 6
	movl	$0, %eax
.L29:
	.loc 7 13 5 is_stmt 1 discriminator 8
	testb	%al, %al
	je	.L30
	.loc 7 14 18
	movq	-184(%rbp), %rax
	movq	%rax, -64(%rbp)
	.loc 7 14 27
	movq	-176(%rbp), %rax
	subq	$1, %rax
	.loc 7 14 18
	movq	%rax, -56(%rbp)
	leaq	-64(%rbp), %rdx
	leaq	-128(%rbp), %rax
	movq	%rdx, %rsi
	movq	%rax, %rdi
	call	_ZNSt6vectorISt5arrayIxLm2EESaIS1_EE9push_backEOS1_
	.loc 7 15 11
	movq	-176(%rbp), %rax
	movq	%rax, -184(%rbp)
.L30:
	.loc 7 12 3 discriminator 2
	addq	$1, -176(%rbp)
.L26:
	.loc 7 12 26 discriminator 1
	movq	-216(%rbp), %rax
	addq	$1, %rax
	.loc 7 12 21 discriminator 1
	cmpq	%rax, -176(%rbp)
	jle	.L31
.LBE132:
	.loc 7 18 7
	movq	$0, -208(%rbp)
	.loc 7 19 46
	movb	$49, -192(%rbp)
	.loc 7 19 17
	leaq	-96(%rbp), %rax
	movq	%rax, %rdi
	call	_ZNSt7__cxx1112basic_stringIcSt11char_traitsIcESaIcEE3endEv@PLT
	movq	%rax, %rbx
	.loc 7 19 27 discriminator 1
	leaq	-96(%rbp), %rax
	movq	%rax, %rdi
	call	_ZNSt7__cxx1112basic_stringIcSt11char_traitsIcESaIcEE5beginEv@PLT
	movq	%rax, -144(%rbp)
	.loc 7 19 17 discriminator 2
	leaq	-144(%rbp), %rax
	movl	$1, %esi
	movq	%rax, %rdi
	call	_ZNK9__gnu_cxx17__normal_iteratorIPcNSt7__cxx1112basic_stringIcSt11char_traitsIcESaIcEEEEplEl
	movq	%rax, %rcx
	.loc 7 19 17 is_stmt 0 discriminator 3
	leaq	-192(%rbp), %rax
	movq	%rax, %rdx
	movq	%rbx, %rsi
	movq	%rcx, %rdi
	call	_ZSt5countIN9__gnu_cxx17__normal_iteratorIPcNSt7__cxx1112basic_stringIcSt11char_traitsIcESaIcEEEEEcENSt15iterator_traitsIT_E15difference_typeESB_SB_RKT0_
	.loc 7 19 17 discriminator 2
	testq	%rax, %rax
	setne	%al
	.loc 7 19 3 is_stmt 1 discriminator 2
	testb	%al, %al
	je	.L32
	.loc 7 20 8
	movq	-208(%rbp), %rax
	addq	$1, %rax
	movq	%rax, -208(%rbp)
.L32:
	.loc 7 25 3
	leaq	-128(%rbp), %rax
	movq	%rax, -200(%rbp)
	.loc 7 29 3
	leaq	-128(%rbp), %rax
	movq	%rax, -144(%rbp)
	leaq	-216(%rbp), %rax
	movq	%rax, -136(%rbp)
.LBB133:
	.loc 7 30 22
	leaq	-96(%rbp), %rax
	movl	$1, %esi
	movq	%rax, %rdi
	call	_ZNSt7__cxx1112basic_stringIcSt11char_traitsIcESaIcEEixEm@PLT
	.loc 7 30 24 discriminator 1
	movzbl	(%rax), %eax
	cmpb	$49, %al
	sete	%al
	.loc 7 30 30 discriminator 1
	movzbl	%al, %eax
	movq	%rax, -168(%rbp)
	.loc 7 30 3
	jmp	.L33
.L42:
.LBB134:
	.loc 7 31 22
	movq	-168(%rbp), %rdx
	leaq	-128(%rbp), %rax
	movq	%rdx, %rsi
	movq	%rax, %rdi
	call	_ZNSt6vectorISt5arrayIxLm2EESaIS1_EEixEm
	.loc 7 31 22 is_stmt 0 discriminator 1
	movq	8(%rax), %rdx
	movq	(%rax), %rax
	movq	%rax, -64(%rbp)
	movq	%rdx, -56(%rbp)
	.loc 7 31 11 is_stmt 1 discriminator 1
	leaq	-64(%rbp), %rax
	movq	%rax, %rdi
	call	_ZSt3getILm0ExLm2EEOT0_OSt5arrayIS0_XT1_EE
	movq	%rax, -160(%rbp)
	.loc 7 31 14 discriminator 2
	leaq	-64(%rbp), %rax
	movq	%rax, %rdi
	call	_ZSt3getILm1ExLm2EEOT0_OSt5arrayIS0_XT1_EE
	movq	%rax, -152(%rbp)
	.loc 7 32 29
	movq	-168(%rbp), %rdx
	leaq	-200(%rbp), %rax
	movq	%rdx, %rsi
	movq	%rax, %rdi
	call	_ZZ5solvevENKUlxE_clEx
	.loc 7 32 29 is_stmt 0 discriminator 1
	movq	%rax, -192(%rbp)
	.loc 7 32 19 is_stmt 1 discriminator 1
	leaq	-192(%rbp), %rdx
	leaq	-208(%rbp), %rax
	movq	%rdx, %rsi
	movq	%rax, %rdi
	call	_ZSt3maxIxERKT_S2_S2_
	.loc 7 32 19 is_stmt 0 discriminator 2
	movq	(%rax), %rax
	.loc 7 32 9 is_stmt 1 discriminator 2
	movq	%rax, -208(%rbp)
	.loc 7 33 29
	movq	-168(%rbp), %rdx
	leaq	-144(%rbp), %rax
	movq	%rdx, %rsi
	movq	%rax, %rdi
	call	_ZZ5solvevENKUlxE0_clEx
	.loc 7 33 29 is_stmt 0 discriminator 1
	movq	%rax, -192(%rbp)
	.loc 7 33 19 is_stmt 1 discriminator 1
	leaq	-192(%rbp), %rdx
	leaq	-208(%rbp), %rax
	movq	%rdx, %rsi
	movq	%rax, %rdi
	call	_ZSt3maxIxERKT_S2_S2_
	.loc 7 33 19 is_stmt 0 discriminator 2
	movq	(%rax), %rax
	.loc 7 33 9 is_stmt 1 discriminator 2
	movq	%rax, -208(%rbp)
	.loc 7 34 5
	cmpq	$0, -168(%rbp)
	jle	.L34
	.loc 7 35 31
	movq	-168(%rbp), %rdx
	leaq	-200(%rbp), %rax
	movq	%rdx, %rsi
	movq	%rax, %rdi
	call	_ZZ5solvevENKUlxE_clEx
	.loc 7 35 35 discriminator 1
	addq	$1, %rax
	movq	%rax, -192(%rbp)
	.loc 7 35 21 discriminator 1
	leaq	-192(%rbp), %rdx
	leaq	-208(%rbp), %rax
	movq	%rdx, %rsi
	movq	%rax, %rdi
	call	_ZSt3maxIxERKT_S2_S2_
	.loc 7 35 21 is_stmt 0 discriminator 2
	movq	(%rax), %rax
	.loc 7 35 11 is_stmt 1 discriminator 2
	movq	%rax, -208(%rbp)
.L34:
	.loc 7 37 11
	movq	-168(%rbp), %rax
	addq	$1, %rax
	movq	%rax, %rbx
	.loc 7 37 23
	leaq	-128(%rbp), %rax
	movq	%rax, %rdi
	call	_ZNKSt6vectorISt5arrayIxLm2EESaIS1_EE4sizeEv
	.loc 7 37 15 discriminator 1
	cmpq	%rax, %rbx
	setb	%al
	.loc 7 37 5 discriminator 1
	testb	%al, %al
	je	.L35
	.loc 7 38 31
	movq	-168(%rbp), %rdx
	leaq	-144(%rbp), %rax
	movq	%rdx, %rsi
	movq	%rax, %rdi
	call	_ZZ5solvevENKUlxE0_clEx
	.loc 7 38 35 discriminator 1
	addq	$1, %rax
	movq	%rax, -192(%rbp)
	.loc 7 38 21 discriminator 1
	leaq	-192(%rbp), %rdx
	leaq	-208(%rbp), %rax
	movq	%rdx, %rsi
	movq	%rax, %rdi
	call	_ZSt3maxIxERKT_S2_S2_
	.loc 7 38 21 is_stmt 0 discriminator 2
	movq	(%rax), %rax
	.loc 7 38 11 is_stmt 1 discriminator 2
	movq	%rax, -208(%rbp)
.L35:
	.loc 7 40 20
	cmpq	$1, -168(%rbp)
	jle	.L36
	.loc 7 40 27 discriminator 1
	movq	-168(%rbp), %rax
	subq	$1, %rax
	.loc 7 40 30 discriminator 1
	movq	%rax, %rdx
	leaq	-128(%rbp), %rax
	movq	%rdx, %rsi
	movq	%rax, %rdi
	call	_ZNSt6vectorISt5arrayIxLm2EESaIS1_EEixEm
	.loc 7 40 33 discriminator 1
	movl	$0, %esi
	movq	%rax, %rdi
	call	_ZNSt5arrayIxLm2EEixEm
	.loc 7 40 35 discriminator 2
	movq	(%rax), %rbx
	.loc 7 40 42 discriminator 2
	movq	-168(%rbp), %rax
	subq	$1, %rax
	.loc 7 40 45 discriminator 2
	movq	%rax, %rdx
	leaq	-128(%rbp), %rax
	movq	%rdx, %rsi
	movq	%rax, %rdi
	call	_ZNSt6vectorISt5arrayIxLm2EESaIS1_EEixEm
	.loc 7 40 48 discriminator 3
	movl	$1, %esi
	movq	%rax, %rdi
	call	_ZNSt5arrayIxLm2EEixEm
	.loc 7 40 35 discriminator 4
	movq	(%rax), %rax
	.loc 7 40 20 discriminator 4
	cmpq	%rax, %rbx
	jne	.L36
	.loc 7 40 20 is_stmt 0 discriminator 3
	movl	$1, %eax
	.loc 7 40 20
	jmp	.L37
.L36:
	.loc 7 40 20 discriminator 4
	movl	$0, %eax
.L37:
	.loc 7 40 5 is_stmt 1 discriminator 6
	testb	%al, %al
	je	.L38
	.loc 7 41 31
	movq	-168(%rbp), %rax
	leaq	-2(%rax), %rdx
	leaq	-144(%rbp), %rax
	movq	%rdx, %rsi
	movq	%rax, %rdi
	call	_ZZ5solvevENKUlxE0_clEx
	movq	%rax, %rbx
	.loc 7 41 45 discriminator 1
	movq	-168(%rbp), %rdx
	leaq	-200(%rbp), %rax
	movq	%rdx, %rsi
	movq	%rax, %rdi
	call	_ZZ5solvevENKUlxE_clEx
	.loc 7 41 39 discriminator 2
	addq	%rbx, %rax
	.loc 7 41 49 discriminator 2
	addq	$1, %rax
	movq	%rax, -192(%rbp)
	.loc 7 41 21 discriminator 2
	leaq	-192(%rbp), %rdx
	leaq	-208(%rbp), %rax
	movq	%rdx, %rsi
	movq	%rax, %rdi
	call	_ZSt3maxIxERKT_S2_S2_
	.loc 7 41 21 is_stmt 0 discriminator 3
	movq	(%rax), %rax
	.loc 7 41 11 is_stmt 1 discriminator 3
	movq	%rax, -208(%rbp)
.L38:
	.loc 7 43 11
	movq	-168(%rbp), %rax
	addq	$2, %rax
	movq	%rax, %rbx
	.loc 7 43 23
	leaq	-128(%rbp), %rax
	movq	%rax, %rdi
	call	_ZNKSt6vectorISt5arrayIxLm2EESaIS1_EE4sizeEv
	.loc 7 43 26 discriminator 1
	cmpq	%rax, %rbx
	jnb	.L39
	.loc 7 43 33 discriminator 1
	movq	-168(%rbp), %rax
	addq	$1, %rax
	.loc 7 43 36 discriminator 1
	movq	%rax, %rdx
	leaq	-128(%rbp), %rax
	movq	%rdx, %rsi
	movq	%rax, %rdi
	call	_ZNSt6vectorISt5arrayIxLm2EESaIS1_EEixEm
	.loc 7 43 39 discriminator 1
	movl	$0, %esi
	movq	%rax, %rdi
	call	_ZNSt5arrayIxLm2EEixEm
	.loc 7 43 41 discriminator 2
	movq	(%rax), %rbx
	.loc 7 43 48 discriminator 2
	movq	-168(%rbp), %rax
	addq	$1, %rax
	.loc 7 43 51 discriminator 2
	movq	%rax, %rdx
	leaq	-128(%rbp), %rax
	movq	%rdx, %rsi
	movq	%rax, %rdi
	call	_ZNSt6vectorISt5arrayIxLm2EESaIS1_EEixEm
	.loc 7 43 54 discriminator 3
	movl	$1, %esi
	movq	%rax, %rdi
	call	_ZNSt5arrayIxLm2EEixEm
	.loc 7 43 41 discriminator 4
	movq	(%rax), %rax
	.loc 7 43 26 discriminator 4
	cmpq	%rax, %rbx
	jne	.L39
	.loc 7 43 26 is_stmt 0 discriminator 3
	movl	$1, %eax
	.loc 7 43 26
	jmp	.L40
.L39:
	.loc 7 43 26 discriminator 4
	movl	$0, %eax
.L40:
	.loc 7 43 5 is_stmt 1 discriminator 6
	testb	%al, %al
	je	.L41
	.loc 7 44 31
	movq	-168(%rbp), %rdx
	leaq	-144(%rbp), %rax
	movq	%rdx, %rsi
	movq	%rax, %rdi
	call	_ZZ5solvevENKUlxE0_clEx
	movq	%rax, %rbx
	.loc 7 44 41 discriminator 1
	movq	-168(%rbp), %rax
	leaq	2(%rax), %rdx
	leaq	-200(%rbp), %rax
	movq	%rdx, %rsi
	movq	%rax, %rdi
	call	_ZZ5solvevENKUlxE_clEx
	.loc 7 44 35 discriminator 2
	addq	%rbx, %rax
	.loc 7 44 49 discriminator 2
	addq	$1, %rax
	movq	%rax, -192(%rbp)
	.loc 7 44 21 discriminator 2
	leaq	-192(%rbp), %rdx
	leaq	-208(%rbp), %rax
	movq	%rdx, %rsi
	movq	%rax, %rdi
	call	_ZSt3maxIxERKT_S2_S2_
	.loc 7 44 21 is_stmt 0 discriminator 3
	movq	(%rax), %rax
	.loc 7 44 11 is_stmt 1 discriminator 3
	movq	%rax, -208(%rbp)
.L41:
.LBE134:
	.loc 7 30 49 discriminator 3
	addq	$2, -168(%rbp)
.L33:
	.loc 7 30 43 discriminator 2
	leaq	-128(%rbp), %rax
	movq	%rax, %rdi
	call	_ZNKSt6vectorISt5arrayIxLm2EESaIS1_EE4sizeEv
	.loc 7 30 35 discriminator 1
	movq	-168(%rbp), %rdx
	cmpq	%rax, %rdx
	setb	%al
	testb	%al, %al
	jne	.L42
.LBE133:
	.loc 7 48 23
	movq	-208(%rbp), %rax
	.loc 7 48 16
	movq	%rax, %rsi
	leaq	_ZSt4cout(%rip), %rax
	movq	%rax, %rdi
	call	_ZNSolsEx@PLT
	.loc 7 48 23 discriminator 1
	movl	$10, %esi
	movq	%rax, %rdi
	call	_ZStlsISt11char_traitsIcEERSt13basic_ostreamIcT_ES5_c@PLT
.LEHE2:
	.loc 7 56 1
	leaq	-128(%rbp), %rax
	movq	%rax, %rdi
	call	_ZNSt6vectorISt5arrayIxLm2EESaIS1_EED1Ev
	.loc 7 56 1 is_stmt 0 discriminator 1
	leaq	-96(%rbp), %rax
	movq	%rax, %rdi
	call	_ZNSt7__cxx1112basic_stringIcSt11char_traitsIcESaIcEED1Ev@PLT
	.loc 7 56 1
	movq	-24(%rbp), %rax
	subq	%fs:40, %rax
	je	.L46
	jmp	.L49
.L48:
	endbr64
	movq	%rax, %rbx
	leaq	-128(%rbp), %rax
	movq	%rax, %rdi
	call	_ZNSt6vectorISt5arrayIxLm2EESaIS1_EED1Ev
	jmp	.L44
.L47:
	endbr64
	movq	%rax, %rbx
.L44:
	leaq	-96(%rbp), %rax
	movq	%rax, %rdi
	call	_ZNSt7__cxx1112basic_stringIcSt11char_traitsIcESaIcEED1Ev@PLT
	movq	%rbx, %rax
	movq	-24(%rbp), %rdx
	subq	%fs:40, %rdx
	je	.L45
	call	__stack_chk_fail@PLT
.L45:
	movq	%rax, %rdi
.LEHB3:
	call	_Unwind_Resume@PLT
.LEHE3:
.L49:
	call	__stack_chk_fail@PLT
.L46:
	movq	-8(%rbp), %rbx
	leave
	.cfi_def_cfa 7, 8
	ret
	.cfi_endproc
.LFE9770:
	.globl	__gxx_personality_v0
	.section	.gcc_except_table,"a",@progbits
.LLSDA9770:
	.byte	0xff
	.byte	0xff
	.byte	0x1
	.uleb128 .LLSDACSE9770-.LLSDACSB9770
.LLSDACSB9770:
	.uleb128 .LEHB0-.LFB9770
	.uleb128 .LEHE0-.LEHB0
	.uleb128 0
	.uleb128 0
	.uleb128 .LEHB1-.LFB9770
	.uleb128 .LEHE1-.LEHB1
	.uleb128 .L47-.LFB9770
	.uleb128 0
	.uleb128 .LEHB2-.LFB9770
	.uleb128 .LEHE2-.LEHB2
	.uleb128 .L48-.LFB9770
	.uleb128 0
	.uleb128 .LEHB3-.LFB9770
	.uleb128 .LEHE3-.LEHB3
	.uleb128 0
	.uleb128 0
.LLSDACSE9770:
	.text
	.size	_Z5solvev, .-_Z5solvev
	.globl	main
	.type	main, @function
main:
.LFB9788:
	.loc 7 58 16 is_stmt 1
	.cfi_startproc
	endbr64
	pushq	%rbp
	.cfi_def_cfa_offset 16
	.cfi_offset 6, -16
	movq	%rsp, %rbp
	.cfi_def_cfa_register 6
	subq	$16, %rsp
	.loc 7 58 16
	movq	%fs:40, %rax
	movq	%rax, -8(%rbp)
	xorl	%eax, %eax
	.loc 7 59 15
	movl	$0, %esi
	leaq	16+_ZSt3cin(%rip), %rax
	movq	%rax, %rdi
	call	_ZNSt9basic_iosIcSt11char_traitsIcEE3tieEPSo@PLT
	.loc 7 59 41 discriminator 1
	movl	$0, %edi
	call	_ZNSt8ios_base15sync_with_stdioEb@PLT
	.loc 7 60 7
	movq	$1, -16(%rbp)
	.loc 7 61 15
	leaq	-16(%rbp), %rax
	movq	%rax, %rsi
	leaq	_ZSt3cin(%rip), %rax
	movq	%rax, %rdi
	call	_ZNSirsERx@PLT
	.loc 7 62 3
	jmp	.L51
.L52:
	.loc 7 63 10
	call	_Z5solvev
.L51:
	.loc 7 62 11
	movq	-16(%rbp), %rax
	leaq	-1(%rax), %rdx
	movq	%rdx, -16(%rbp)
	testq	%rax, %rax
	setne	%al
	testb	%al, %al
	jne	.L52
	.loc 7 65 10
	movl	$0, %eax
	.loc 7 66 1
	movq	-8(%rbp), %rdx
	subq	%fs:40, %rdx
	je	.L54
	call	__stack_chk_fail@PLT
.L54:
	leave
	.cfi_def_cfa 7, 8
	ret
	.cfi_endproc
.LFE9788:
	.size	main, .-main
	.section	.text._ZSt3maxImERKT_S2_S2_,"axG",@progbits,_ZSt3maxImERKT_S2_S2_,comdat
	.weak	_ZSt3maxImERKT_S2_S2_
	.type	_ZSt3maxImERKT_S2_S2_, @function
_ZSt3maxImERKT_S2_S2_:
.LFB10038:
	.loc 2 257 5
	.cfi_startproc
	endbr64
	pushq	%rbp
	.cfi_def_cfa_offset 16
	.cfi_offset 6, -16
	movq	%rsp, %rbp
	.cfi_def_cfa_register 6
	movq	%rdi, -8(%rbp)
	movq	%rsi, -16(%rbp)
	.loc 2 262 15
	movq	-8(%rbp), %rax
	movq	(%rax), %rdx
	movq	-16(%rbp), %rax
	movq	(%rax), %rax
	.loc 2 262 7
	cmpq	%rax, %rdx
	jnb	.L56
	.loc 2 263 9
	movq	-16(%rbp), %rax
	jmp	.L57
.L56:
	.loc 2 264 14
	movq	-8(%rbp), %rax
.L57:
	.loc 2 265 5
	popq	%rbp
	.cfi_def_cfa 7, 8
	ret
	.cfi_endproc
.LFE10038:
	.size	_ZSt3maxImERKT_S2_S2_, .-_ZSt3maxImERKT_S2_S2_
	.section	.text._ZStplIcSt11char_traitsIcESaIcEENSt7__cxx1112basic_stringIT_T0_T1_EES5_RKS8_,"axG",@progbits,_ZStplIcSt11char_traitsIcESaIcEENSt7__cxx1112basic_stringIT_T0_T1_EES5_RKS8_,comdat
	.weak	_ZStplIcSt11char_traitsIcESaIcEENSt7__cxx1112basic_stringIT_T0_T1_EES5_RKS8_
	.type	_ZStplIcSt11char_traitsIcESaIcEENSt7__cxx1112basic_stringIT_T0_T1_EES5_RKS8_, @function
_ZStplIcSt11char_traitsIcESaIcEENSt7__cxx1112basic_stringIT_T0_T1_EES5_RKS8_:
.LFB10475:
	.file 8 "/usr/include/c++/13/bits/basic_string.h"
	.loc 8 3590 5
	.cfi_startproc
	.cfi_personality 0x9b,DW.ref.__gxx_personality_v0
	.cfi_lsda 0x1b,.LLSDA10475
	endbr64
	pushq	%rbp
	.cfi_def_cfa_offset 16
	.cfi_offset 6, -16
	movq	%rsp, %rbp
	.cfi_def_cfa_register 6
	pushq	%rbx
	subq	$56, %rsp
	.cfi_offset 3, -24
	movq	%rdi, -40(%rbp)
	movl	%esi, %eax
	movq	%rdx, -56(%rbp)
	movb	%al, -44(%rbp)
	.loc 8 3590 5
	movq	%fs:40, %rax
	movq	%rax, -24(%rbp)
	xorl	%eax, %eax
	.loc 8 3595 31
	leaq	-25(%rbp), %rax
	movq	-56(%rbp), %rdx
	movq	%rdx, %rsi
	movq	%rax, %rdi
	call	_ZNKSt7__cxx1112basic_stringIcSt11char_traitsIcESaIcEE13get_allocatorEv@PLT
	.loc 8 3595 31 is_stmt 0 discriminator 1
	movq	-56(%rbp), %rax
	movq	%rax, %rdi
	call	_ZNKSt7__cxx1112basic_stringIcSt11char_traitsIcESaIcEE4sizeEv@PLT
	movq	%rax, %rbx
	.loc 8 3595 31 discriminator 2
	movq	-56(%rbp), %rax
	movq	%rax, %rdi
	call	_ZNKSt7__cxx1112basic_stringIcSt11char_traitsIcESaIcEE5c_strEv@PLT
	movq	%rax, %rdx
	.loc 8 3595 31 discriminator 3
	movq	-40(%rbp), %rax
	leaq	-25(%rbp), %rcx
	leaq	-44(%rbp), %rsi
	movq	%rcx, %r9
	movq	%rbx, %r8
	movq	%rdx, %rcx
	movl	$1, %edx
	movq	%rax, %rdi
.LEHB4:
	call	_ZSt12__str_concatINSt7__cxx1112basic_stringIcSt11char_traitsIcESaIcEEEET_PKNS6_10value_typeENS6_9size_typeES9_SA_RKNS6_14allocator_typeE
.LEHE4:
.LBB135:
.LBB136:
.LBB137:
	.loc 4 184 39 is_stmt 1
	leaq	-25(%rbp), %rax
	movq	%rax, %rdi
	call	_ZNSt15__new_allocatorIcED2Ev
.LBE137:
	nop
.LBE136:
.LBE135:
	.loc 8 3595 31
	nop
	.loc 8 3596 5
	movq	-24(%rbp), %rax
	subq	%fs:40, %rax
	je	.L62
	jmp	.L64
.L63:
	endbr64
.LBB138:
.LBB139:
.LBB140:
	.loc 4 184 39
	movq	%rax, %rbx
	leaq	-25(%rbp), %rax
	movq	%rax, %rdi
	call	_ZNSt15__new_allocatorIcED2Ev
.LBE140:
	nop
	movq	%rbx, %rax
	movq	-24(%rbp), %rdx
	subq	%fs:40, %rdx
	je	.L61
	call	__stack_chk_fail@PLT
.L61:
	movq	%rax, %rdi
.LEHB5:
	call	_Unwind_Resume@PLT
.LEHE5:
.L64:
.LBE139:
.LBE138:
	.loc 8 3596 5
	call	__stack_chk_fail@PLT
.L62:
	movq	-40(%rbp), %rax
	movq	-8(%rbp), %rbx
	leave
	.cfi_def_cfa 7, 8
	ret
	.cfi_endproc
.LFE10475:
	.section	.gcc_except_table
.LLSDA10475:
	.byte	0xff
	.byte	0xff
	.byte	0x1
	.uleb128 .LLSDACSE10475-.LLSDACSB10475
.LLSDACSB10475:
	.uleb128 .LEHB4-.LFB10475
	.uleb128 .LEHE4-.LEHB4
	.uleb128 .L63-.LFB10475
	.uleb128 0
	.uleb128 .LEHB5-.LFB10475
	.uleb128 .LEHE5-.LEHB5
	.uleb128 0
	.uleb128 0
.LLSDACSE10475:
	.section	.text._ZStplIcSt11char_traitsIcESaIcEENSt7__cxx1112basic_stringIT_T0_T1_EES5_RKS8_,"axG",@progbits,_ZStplIcSt11char_traitsIcESaIcEENSt7__cxx1112basic_stringIT_T0_T1_EES5_RKS8_,comdat
	.size	_ZStplIcSt11char_traitsIcESaIcEENSt7__cxx1112basic_stringIT_T0_T1_EES5_RKS8_, .-_ZStplIcSt11char_traitsIcESaIcEENSt7__cxx1112basic_stringIT_T0_T1_EES5_RKS8_
	.section	.text._ZNSt12_Vector_baseISt5arrayIxLm2EESaIS1_EE12_Vector_implC2Ev,"axG",@progbits,_ZNSt12_Vector_baseISt5arrayIxLm2EESaIS1_EE12_Vector_implC5Ev,comdat
	.align 2
	.weak	_ZNSt12_Vector_baseISt5arrayIxLm2EESaIS1_EE12_Vector_implC2Ev
	.type	_ZNSt12_Vector_baseISt5arrayIxLm2EESaIS1_EE12_Vector_implC2Ev, @function
_ZNSt12_Vector_baseISt5arrayIxLm2EESaIS1_EE12_Vector_implC2Ev:
.LFB10477:
	.loc 3 137 2
	.cfi_startproc
	endbr64
	pushq	%rbp
	.cfi_def_cfa_offset 16
	.cfi_offset 6, -16
	movq	%rsp, %rbp
	.cfi_def_cfa_register 6
	subq	$32, %rsp
	movq	%rdi, -24(%rbp)
	movq	-24(%rbp), %rax
	movq	%rax, -16(%rbp)
	movq	-16(%rbp), %rax
	movq	%rax, -8(%rbp)
.LBB141:
.LBB142:
.LBB143:
.LBB144:
.LBB145:
.LBB146:
	.file 9 "/usr/include/c++/13/bits/new_allocator.h"
	.loc 9 88 49
	nop
.LBE146:
.LBE145:
.LBE144:
	.loc 4 163 38
	nop
.LBE143:
.LBE142:
	.loc 3 142 19 discriminator 1
	movq	-24(%rbp), %rax
	movq	%rax, %rdi
	call	_ZNSt12_Vector_baseISt5arrayIxLm2EESaIS1_EE17_Vector_impl_dataC2Ev
.LBE141:
	.loc 3 143 4
	nop
	leave
	.cfi_def_cfa 7, 8
	ret
	.cfi_endproc
.LFE10477:
	.size	_ZNSt12_Vector_baseISt5arrayIxLm2EESaIS1_EE12_Vector_implC2Ev, .-_ZNSt12_Vector_baseISt5arrayIxLm2EESaIS1_EE12_Vector_implC2Ev
	.weak	_ZNSt12_Vector_baseISt5arrayIxLm2EESaIS1_EE12_Vector_implC1Ev
	.set	_ZNSt12_Vector_baseISt5arrayIxLm2EESaIS1_EE12_Vector_implC1Ev,_ZNSt12_Vector_baseISt5arrayIxLm2EESaIS1_EE12_Vector_implC2Ev
	.section	.text._ZNSt12_Vector_baseISt5arrayIxLm2EESaIS1_EED2Ev,"axG",@progbits,_ZNSt12_Vector_baseISt5arrayIxLm2EESaIS1_EED5Ev,comdat
	.align 2
	.weak	_ZNSt12_Vector_baseISt5arrayIxLm2EESaIS1_EED2Ev
	.type	_ZNSt12_Vector_baseISt5arrayIxLm2EESaIS1_EED2Ev, @function
_ZNSt12_Vector_baseISt5arrayIxLm2EESaIS1_EED2Ev:
.LFB10483:
	.loc 3 367 7
	.cfi_startproc
	.cfi_personality 0x9b,DW.ref.__gxx_personality_v0
	.cfi_lsda 0x1b,.LLSDA10483
	endbr64
	pushq	%rbp
	.cfi_def_cfa_offset 16
	.cfi_offset 6, -16
	movq	%rsp, %rbp
	.cfi_def_cfa_register 6
	subq	$16, %rsp
	movq	%rdi, -8(%rbp)
.LBB147:
	.loc 3 370 17
	movq	-8(%rbp), %rax
	movq	16(%rax), %rdx
	.loc 3 370 45
	movq	-8(%rbp), %rax
	movq	(%rax), %rax
	.loc 3 370 35
	subq	%rax, %rdx
	movq	%rdx, %rax
	sarq	$4, %rax
	.loc 3 369 15
	movq	%rax, %rdx
	movq	-8(%rbp), %rax
	movq	(%rax), %rcx
	movq	-8(%rbp), %rax
	movq	%rcx, %rsi
	movq	%rax, %rdi
	call	_ZNSt12_Vector_baseISt5arrayIxLm2EESaIS1_EE13_M_deallocateEPS1_m
	.loc 3 371 7
	movq	-8(%rbp), %rax
	movq	%rax, %rdi
	call	_ZNSt12_Vector_baseISt5arrayIxLm2EESaIS1_EE12_Vector_implD1Ev
.LBE147:
	nop
	leave
	.cfi_def_cfa 7, 8
	ret
	.cfi_endproc
.LFE10483:
	.section	.gcc_except_table
.LLSDA10483:
	.byte	0xff
	.byte	0xff
	.byte	0x1
	.uleb128 .LLSDACSE10483-.LLSDACSB10483
.LLSDACSB10483:
.LLSDACSE10483:
	.section	.text._ZNSt12_Vector_baseISt5arrayIxLm2EESaIS1_EED2Ev,"axG",@progbits,_ZNSt12_Vector_baseISt5arrayIxLm2EESaIS1_EED5Ev,comdat
	.size	_ZNSt12_Vector_baseISt5arrayIxLm2EESaIS1_EED2Ev, .-_ZNSt12_Vector_baseISt5arrayIxLm2EESaIS1_EED2Ev
	.weak	_ZNSt12_Vector_baseISt5arrayIxLm2EESaIS1_EED1Ev
	.set	_ZNSt12_Vector_baseISt5arrayIxLm2EESaIS1_EED1Ev,_ZNSt12_Vector_baseISt5arrayIxLm2EESaIS1_EED2Ev
	.section	.text._ZNSt6vectorISt5arrayIxLm2EESaIS1_EED2Ev,"axG",@progbits,_ZNSt6vectorISt5arrayIxLm2EESaIS1_EED5Ev,comdat
	.align 2
	.weak	_ZNSt6vectorISt5arrayIxLm2EESaIS1_EED2Ev
	.type	_ZNSt6vectorISt5arrayIxLm2EESaIS1_EED2Ev, @function
_ZNSt6vectorISt5arrayIxLm2EESaIS1_EED2Ev:
.LFB10486:
	.loc 3 733 7
	.cfi_startproc
	.cfi_personality 0x9b,DW.ref.__gxx_personality_v0
	.cfi_lsda 0x1b,.LLSDA10486
	endbr64
	pushq	%rbp
	.cfi_def_cfa_offset 16
	.cfi_offset 6, -16
	movq	%rsp, %rbp
	.cfi_def_cfa_register 6
	subq	$48, %rsp
	movq	%rdi, -40(%rbp)
.LBB148:
	.loc 3 736 28
	movq	-40(%rbp), %rax
	movq	%rax, %rdi
	call	_ZNSt12_Vector_baseISt5arrayIxLm2EESaIS1_EE19_M_get_Tp_allocatorEv
	.loc 3 735 15
	movq	-40(%rbp), %rdx
	movq	8(%rdx), %rdx
	movq	-40(%rbp), %rcx
	movq	(%rcx), %rcx
	movq	%rcx, -24(%rbp)
	movq	%rdx, -16(%rbp)
	movq	%rax, -8(%rbp)
.LBB149:
.LBB150:
	.file 10 "/usr/include/c++/13/bits/alloc_traits.h"
	.loc 10 948 20
	movq	-16(%rbp), %rdx
	movq	-24(%rbp), %rax
	movq	%rdx, %rsi
	movq	%rax, %rdi
	call	_ZSt8_DestroyIPSt5arrayIxLm2EEEvT_S3_
	.loc 10 949 5
	nop
.LBE150:
.LBE149:
	.loc 3 738 7
	movq	-40(%rbp), %rax
	movq	%rax, %rdi
	call	_ZNSt12_Vector_baseISt5arrayIxLm2EESaIS1_EED2Ev
.LBE148:
	nop
	leave
	.cfi_def_cfa 7, 8
	ret
	.cfi_endproc
.LFE10486:
	.section	.gcc_except_table
.LLSDA10486:
	.byte	0xff
	.byte	0xff
	.byte	0x1
	.uleb128 .LLSDACSE10486-.LLSDACSB10486
.LLSDACSB10486:
.LLSDACSE10486:
	.section	.text._ZNSt6vectorISt5arrayIxLm2EESaIS1_EED2Ev,"axG",@progbits,_ZNSt6vectorISt5arrayIxLm2EESaIS1_EED5Ev,comdat
	.size	_ZNSt6vectorISt5arrayIxLm2EESaIS1_EED2Ev, .-_ZNSt6vectorISt5arrayIxLm2EESaIS1_EED2Ev
	.weak	_ZNSt6vectorISt5arrayIxLm2EESaIS1_EED1Ev
	.set	_ZNSt6vectorISt5arrayIxLm2EESaIS1_EED1Ev,_ZNSt6vectorISt5arrayIxLm2EESaIS1_EED2Ev
	.section	.text._ZNSt6vectorISt5arrayIxLm2EESaIS1_EE9push_backEOS1_,"axG",@progbits,_ZNSt6vectorISt5arrayIxLm2EESaIS1_EE9push_backEOS1_,comdat
	.align 2
	.weak	_ZNSt6vectorISt5arrayIxLm2EESaIS1_EE9push_backEOS1_
	.type	_ZNSt6vectorISt5arrayIxLm2EESaIS1_EE9push_backEOS1_, @function
_ZNSt6vectorISt5arrayIxLm2EESaIS1_EE9push_backEOS1_:
.LFB10488:
	.loc 3 1298 7
	.cfi_startproc
	endbr64
	pushq	%rbp
	.cfi_def_cfa_offset 16
	.cfi_offset 6, -16
	movq	%rsp, %rbp
	.cfi_def_cfa_register 6
	subq	$16, %rsp
	movq	%rdi, -8(%rbp)
	movq	%rsi, -16(%rbp)
	.loc 3 1299 31
	movq	-16(%rbp), %rax
	movq	%rax, %rdi
	call	_ZSt4moveIRSt5arrayIxLm2EEEONSt16remove_referenceIT_E4typeEOS4_
	movq	%rax, %rdx
	.loc 3 1299 21 discriminator 1
	movq	-8(%rbp), %rax
	movq	%rdx, %rsi
	movq	%rax, %rdi
	call	_ZNSt6vectorISt5arrayIxLm2EESaIS1_EE12emplace_backIJS1_EEERS1_DpOT_
	.loc 3 1299 39
	nop
	leave
	.cfi_def_cfa 7, 8
	ret
	.cfi_endproc
.LFE10488:
	.size	_ZNSt6vectorISt5arrayIxLm2EESaIS1_EE9push_backEOS1_, .-_ZNSt6vectorISt5arrayIxLm2EESaIS1_EE9push_backEOS1_
	.section	.text._ZNK9__gnu_cxx17__normal_iteratorIPcNSt7__cxx1112basic_stringIcSt11char_traitsIcESaIcEEEEplEl,"axG",@progbits,_ZNK9__gnu_cxx17__normal_iteratorIPcNSt7__cxx1112basic_stringIcSt11char_traitsIcESaIcEEEEplEl,comdat
	.align 2
	.weak	_ZNK9__gnu_cxx17__normal_iteratorIPcNSt7__cxx1112basic_stringIcSt11char_traitsIcESaIcEEEEplEl
	.type	_ZNK9__gnu_cxx17__normal_iteratorIPcNSt7__cxx1112basic_stringIcSt11char_traitsIcESaIcEEEEplEl, @function
_ZNK9__gnu_cxx17__normal_iteratorIPcNSt7__cxx1112basic_stringIcSt11char_traitsIcESaIcEEEEplEl:
.LFB10490:
	.file 11 "/usr/include/c++/13/bits/stl_iterator.h"
	.loc 11 1147 7
	.cfi_startproc
	endbr64
	pushq	%rbp
	.cfi_def_cfa_offset 16
	.cfi_offset 6, -16
	movq	%rsp, %rbp
	.cfi_def_cfa_register 6
	subq	$48, %rsp
	movq	%rdi, -40(%rbp)
	movq	%rsi, -48(%rbp)
	.loc 11 1147 7
	movq	%fs:40, %rax
	movq	%rax, -8(%rbp)
	xorl	%eax, %eax
	.loc 11 1148 34
	movq	-40(%rbp), %rax
	movq	(%rax), %rdx
	.loc 11 1148 47
	movq	-48(%rbp), %rax
	.loc 11 1148 45
	addq	%rdx, %rax
	movq	%rax, -24(%rbp)
	.loc 11 1148 16
	leaq	-24(%rbp), %rdx
	leaq	-16(%rbp), %rax
	movq	%rdx, %rsi
	movq	%rax, %rdi
	call	_ZN9__gnu_cxx17__normal_iteratorIPcNSt7__cxx1112basic_stringIcSt11char_traitsIcESaIcEEEEC1ERKS1_
	.loc 11 1148 50 discriminator 1
	movq	-16(%rbp), %rax
	.loc 11 1148 53
	movq	-8(%rbp), %rdx
	subq	%fs:40, %rdx
	je	.L71
	call	__stack_chk_fail@PLT
.L71:
	leave
	.cfi_def_cfa 7, 8
	ret
	.cfi_endproc
.LFE10490:
	.size	_ZNK9__gnu_cxx17__normal_iteratorIPcNSt7__cxx1112basic_stringIcSt11char_traitsIcESaIcEEEEplEl, .-_ZNK9__gnu_cxx17__normal_iteratorIPcNSt7__cxx1112basic_stringIcSt11char_traitsIcESaIcEEEEplEl
	.section	.text._ZSt5countIN9__gnu_cxx17__normal_iteratorIPcNSt7__cxx1112basic_stringIcSt11char_traitsIcESaIcEEEEEcENSt15iterator_traitsIT_E15difference_typeESB_SB_RKT0_,"axG",@progbits,_ZSt5countIN9__gnu_cxx17__normal_iteratorIPcNSt7__cxx1112basic_stringIcSt11char_traitsIcESaIcEEEEEcENSt15iterator_traitsIT_E15difference_typeESB_SB_RKT0_,comdat
	.weak	_ZSt5countIN9__gnu_cxx17__normal_iteratorIPcNSt7__cxx1112basic_stringIcSt11char_traitsIcESaIcEEEEEcENSt15iterator_traitsIT_E15difference_typeESB_SB_RKT0_
	.type	_ZSt5countIN9__gnu_cxx17__normal_iteratorIPcNSt7__cxx1112basic_stringIcSt11char_traitsIcESaIcEEEEEcENSt15iterator_traitsIT_E15difference_typeESB_SB_RKT0_, @function
_ZSt5countIN9__gnu_cxx17__normal_iteratorIPcNSt7__cxx1112basic_stringIcSt11char_traitsIcESaIcEEEEEcENSt15iterator_traitsIT_E15difference_typeESB_SB_RKT0_:
.LFB10492:
	.file 12 "/usr/include/c++/13/bits/stl_algo.h"
	.loc 12 4072 5
	.cfi_startproc
	endbr64
	pushq	%rbp
	.cfi_def_cfa_offset 16
	.cfi_offset 6, -16
	movq	%rsp, %rbp
	.cfi_def_cfa_register 6
	subq	$32, %rsp
	movq	%rdi, -8(%rbp)
	movq	%rsi, -16(%rbp)
	movq	%rdx, -24(%rbp)
	.loc 12 4080 29
	movq	-24(%rbp), %rax
	movq	%rax, %rdi
	call	_ZN9__gnu_cxx5__ops17__iter_equals_valIKcEENS0_16_Iter_equals_valIT_EERS4_
	movq	%rax, %rdx
	.loc 12 4080 29 is_stmt 0 discriminator 1
	movq	-16(%rbp), %rcx
	movq	-8(%rbp), %rax
	movq	%rcx, %rsi
	movq	%rax, %rdi
	call	_ZSt10__count_ifIN9__gnu_cxx17__normal_iteratorIPcNSt7__cxx1112basic_stringIcSt11char_traitsIcESaIcEEEEENS0_5__ops16_Iter_equals_valIKcEEENSt15iterator_traitsIT_E15difference_typeESF_SF_T0_
	.loc 12 4082 5 is_stmt 1
	leave
	.cfi_def_cfa 7, 8
	ret
	.cfi_endproc
.LFE10492:
	.size	_ZSt5countIN9__gnu_cxx17__normal_iteratorIPcNSt7__cxx1112basic_stringIcSt11char_traitsIcESaIcEEEEEcENSt15iterator_traitsIT_E15difference_typeESB_SB_RKT0_, .-_ZSt5countIN9__gnu_cxx17__normal_iteratorIPcNSt7__cxx1112basic_stringIcSt11char_traitsIcESaIcEEEEEcENSt15iterator_traitsIT_E15difference_typeESB_SB_RKT0_
	.section	.text._ZNSt6vectorISt5arrayIxLm2EESaIS1_EEixEm,"axG",@progbits,_ZNSt6vectorISt5arrayIxLm2EESaIS1_EEixEm,comdat
	.align 2
	.weak	_ZNSt6vectorISt5arrayIxLm2EESaIS1_EEixEm
	.type	_ZNSt6vectorISt5arrayIxLm2EESaIS1_EEixEm, @function
_ZNSt6vectorISt5arrayIxLm2EESaIS1_EEixEm:
.LFB10493:
	.loc 3 1126 7
	.cfi_startproc
	endbr64
	pushq	%rbp
	.cfi_def_cfa_offset 16
	.cfi_offset 6, -16
	movq	%rsp, %rbp
	.cfi_def_cfa_register 6
	movq	%rdi, -8(%rbp)
	movq	%rsi, -16(%rbp)
	.loc 3 1129 25
	movq	-8(%rbp), %rax
	movq	(%rax), %rax
	.loc 3 1129 34
	movq	-16(%rbp), %rdx
	salq	$4, %rdx
	.loc 3 1129 39
	addq	%rdx, %rax
	.loc 3 1130 7
	popq	%rbp
	.cfi_def_cfa 7, 8
	ret
	.cfi_endproc
.LFE10493:
	.size	_ZNSt6vectorISt5arrayIxLm2EESaIS1_EEixEm, .-_ZNSt6vectorISt5arrayIxLm2EESaIS1_EEixEm
	.section	.text._ZNKSt6vectorISt5arrayIxLm2EESaIS1_EE4sizeEv,"axG",@progbits,_ZNKSt6vectorISt5arrayIxLm2EESaIS1_EE4sizeEv,comdat
	.align 2
	.weak	_ZNKSt6vectorISt5arrayIxLm2EESaIS1_EE4sizeEv
	.type	_ZNKSt6vectorISt5arrayIxLm2EESaIS1_EE4sizeEv, @function
_ZNKSt6vectorISt5arrayIxLm2EESaIS1_EE4sizeEv:
.LFB10494:
	.loc 3 992 7
	.cfi_startproc
	endbr64
	pushq	%rbp
	.cfi_def_cfa_offset 16
	.cfi_offset 6, -16
	movq	%rsp, %rbp
	.cfi_def_cfa_register 6
	movq	%rdi, -8(%rbp)
	.loc 3 993 40
	movq	-8(%rbp), %rax
	movq	8(%rax), %rdx
	.loc 3 993 66
	movq	-8(%rbp), %rax
	movq	(%rax), %rax
	.loc 3 993 50
	subq	%rax, %rdx
	movq	%rdx, %rax
	sarq	$4, %rax
	.loc 3 993 77
	popq	%rbp
	.cfi_def_cfa 7, 8
	ret
	.cfi_endproc
.LFE10494:
	.size	_ZNKSt6vectorISt5arrayIxLm2EESaIS1_EE4sizeEv, .-_ZNKSt6vectorISt5arrayIxLm2EESaIS1_EE4sizeEv
	.section	.text._ZSt3maxIxERKT_S2_S2_,"axG",@progbits,_ZSt3maxIxERKT_S2_S2_,comdat
	.weak	_ZSt3maxIxERKT_S2_S2_
	.type	_ZSt3maxIxERKT_S2_S2_, @function
_ZSt3maxIxERKT_S2_S2_:
.LFB10495:
	.loc 2 257 5
	.cfi_startproc
	endbr64
	pushq	%rbp
	.cfi_def_cfa_offset 16
	.cfi_offset 6, -16
	movq	%rsp, %rbp
	.cfi_def_cfa_register 6
	movq	%rdi, -8(%rbp)
	movq	%rsi, -16(%rbp)
	.loc 2 262 15
	movq	-8(%rbp), %rax
	movq	(%rax), %rdx
	movq	-16(%rbp), %rax
	movq	(%rax), %rax
	.loc 2 262 7
	cmpq	%rax, %rdx
	jge	.L79
	.loc 2 263 9
	movq	-16(%rbp), %rax
	jmp	.L80
.L79:
	.loc 2 264 14
	movq	-8(%rbp), %rax
.L80:
	.loc 2 265 5
	popq	%rbp
	.cfi_def_cfa 7, 8
	ret
	.cfi_endproc
.LFE10495:
	.size	_ZSt3maxIxERKT_S2_S2_, .-_ZSt3maxIxERKT_S2_S2_
	.section	.text._ZNSt5arrayIxLm2EEixEm,"axG",@progbits,_ZNSt5arrayIxLm2EEixEm,comdat
	.align 2
	.weak	_ZNSt5arrayIxLm2EEixEm
	.type	_ZNSt5arrayIxLm2EEixEm, @function
_ZNSt5arrayIxLm2EEixEm:
.LFB10496:
	.loc 5 200 7
	.cfi_startproc
	endbr64
	pushq	%rbp
	.cfi_def_cfa_offset 16
	.cfi_offset 6, -16
	movq	%rsp, %rbp
	.cfi_def_cfa_register 6
	movq	%rdi, -8(%rbp)
	movq	%rsi, -16(%rbp)
	.loc 5 203 21
	movq	-16(%rbp), %rax
	leaq	0(,%rax,8), %rdx
	movq	-8(%rbp), %rax
	addq	%rdx, %rax
	.loc 5 204 7
	popq	%rbp
	.cfi_def_cfa 7, 8
	ret
	.cfi_endproc
.LFE10496:
	.size	_ZNSt5arrayIxLm2EEixEm, .-_ZNSt5arrayIxLm2EEixEm
	.section	.text._ZNSt15__new_allocatorIcED2Ev,"axG",@progbits,_ZNSt15__new_allocatorIcED5Ev,comdat
	.align 2
	.weak	_ZNSt15__new_allocatorIcED2Ev
	.type	_ZNSt15__new_allocatorIcED2Ev, @function
_ZNSt15__new_allocatorIcED2Ev:
.LFB10508:
	.loc 9 104 7
	.cfi_startproc
	endbr64
	pushq	%rbp
	.cfi_def_cfa_offset 16
	.cfi_offset 6, -16
	movq	%rsp, %rbp
	.cfi_def_cfa_register 6
	movq	%rdi, -8(%rbp)
	.loc 9 104 50
	nop
	popq	%rbp
	.cfi_def_cfa 7, 8
	ret
	.cfi_endproc
.LFE10508:
	.size	_ZNSt15__new_allocatorIcED2Ev, .-_ZNSt15__new_allocatorIcED2Ev
	.weak	_ZNSt15__new_allocatorIcED1Ev
	.set	_ZNSt15__new_allocatorIcED1Ev,_ZNSt15__new_allocatorIcED2Ev
	.section	.text._ZSt12__str_concatINSt7__cxx1112basic_stringIcSt11char_traitsIcESaIcEEEET_PKNS6_10value_typeENS6_9size_typeES9_SA_RKNS6_14allocator_typeE,"axG",@progbits,_ZSt12__str_concatINSt7__cxx1112basic_stringIcSt11char_traitsIcESaIcEEEET_PKNS6_10value_typeENS6_9size_typeES9_SA_RKNS6_14allocator_typeE,comdat
	.weak	_ZSt12__str_concatINSt7__cxx1112basic_stringIcSt11char_traitsIcESaIcEEEET_PKNS6_10value_typeENS6_9size_typeES9_SA_RKNS6_14allocator_typeE
	.type	_ZSt12__str_concatINSt7__cxx1112basic_stringIcSt11char_traitsIcESaIcEEEET_PKNS6_10value_typeENS6_9size_typeES9_SA_RKNS6_14allocator_typeE, @function
_ZSt12__str_concatINSt7__cxx1112basic_stringIcSt11char_traitsIcESaIcEEEET_PKNS6_10value_typeENS6_9size_typeES9_SA_RKNS6_14allocator_typeE:
.LFB10924:
	.loc 8 3528 5
	.cfi_startproc
	.cfi_personality 0x9b,DW.ref.__gxx_personality_v0
	.cfi_lsda 0x1b,.LLSDA10924
	endbr64
	pushq	%rbp
	.cfi_def_cfa_offset 16
	.cfi_offset 6, -16
	movq	%rsp, %rbp
	.cfi_def_cfa_register 6
	pushq	%rbx
	subq	$120, %rsp
	.cfi_offset 3, -24
	movq	%rdi, -88(%rbp)
	movq	%rsi, -96(%rbp)
	movq	%rdx, -104(%rbp)
	movq	%rcx, -112(%rbp)
	movq	%r8, -120(%rbp)
	movq	%r9, -128(%rbp)
	.loc 8 3528 5
	movq	%fs:40, %rax
	movq	%rax, -24(%rbp)
	xorl	%eax, %eax
	movq	-128(%rbp), %rax
	movq	%rax, -72(%rbp)
	leaq	-73(%rbp), %rax
	movq	-72(%rbp), %rdx
	movq	%rdx, -64(%rbp)
	movq	%rax, -56(%rbp)
	movq	-64(%rbp), %rax
	movq	%rax, -48(%rbp)
	movq	-56(%rbp), %rax
	movq	%rax, -40(%rbp)
	movq	-48(%rbp), %rax
	movq	%rax, -32(%rbp)
.LBB151:
.LBB152:
.LBB153:
.LBB154:
.LBB155:
.LBB156:
.LBB157:
.LBB158:
.LBB159:
	.loc 9 92 71
	nop
.LBE159:
.LBE158:
.LBE157:
	.loc 4 168 38
	nop
.LBE156:
.LBE155:
	.loc 10 588 16
	nop
.LBE154:
.LBE153:
	.file 13 "/usr/include/c++/13/ext/alloc_traits.h"
	.loc 13 98 67
	nop
.LBE152:
.LBE151:
	.loc 8 3536 12 discriminator 2
	leaq	-73(%rbp), %rdx
	movq	-88(%rbp), %rax
	movq	%rdx, %rsi
	movq	%rax, %rdi
	call	_ZNSt7__cxx1112basic_stringIcSt11char_traitsIcESaIcEEC1ERKS3_@PLT
.LBB160:
.LBB161:
.LBB162:
	.loc 4 184 39
	leaq	-73(%rbp), %rax
	movq	%rax, %rdi
	call	_ZNSt15__new_allocatorIcED2Ev
.LBE162:
	nop
.LBE161:
.LBE160:
	.loc 8 3537 20
	movq	-104(%rbp), %rdx
	movq	-120(%rbp), %rax
	addq	%rax, %rdx
	movq	-88(%rbp), %rax
	movq	%rdx, %rsi
	movq	%rax, %rdi
.LEHB6:
	call	_ZNSt7__cxx1112basic_stringIcSt11char_traitsIcESaIcEE7reserveEm@PLT
	.loc 8 3538 19
	movq	-104(%rbp), %rdx
	movq	-96(%rbp), %rcx
	movq	-88(%rbp), %rax
	movq	%rcx, %rsi
	movq	%rax, %rdi
	call	_ZNSt7__cxx1112basic_stringIcSt11char_traitsIcESaIcEE6appendEPKcm@PLT
	.loc 8 3539 19
	movq	-120(%rbp), %rdx
	movq	-112(%rbp), %rcx
	movq	-88(%rbp), %rax
	movq	%rcx, %rsi
	movq	%rax, %rdi
	call	_ZNSt7__cxx1112basic_stringIcSt11char_traitsIcESaIcEE6appendEPKcm@PLT
.LEHE6:
	.loc 8 3540 14
	jmp	.L92
.L91:
	endbr64
	.loc 8 3541 5
	movq	%rax, %rbx
	movq	-88(%rbp), %rax
	movq	%rax, %rdi
	call	_ZNSt7__cxx1112basic_stringIcSt11char_traitsIcESaIcEED1Ev@PLT
	movq	%rbx, %rax
	movq	-24(%rbp), %rdx
	subq	%fs:40, %rdx
	je	.L89
	call	__stack_chk_fail@PLT
.L89:
	movq	%rax, %rdi
.LEHB7:
	call	_Unwind_Resume@PLT
.LEHE7:
.L92:
	movq	-24(%rbp), %rax
	subq	%fs:40, %rax
	je	.L90
	call	__stack_chk_fail@PLT
.L90:
	movq	-88(%rbp), %rax
	movq	-8(%rbp), %rbx
	leave
	.cfi_def_cfa 7, 8
	ret
	.cfi_endproc
.LFE10924:
	.section	.gcc_except_table
.LLSDA10924:
	.byte	0xff
	.byte	0xff
	.byte	0x1
	.uleb128 .LLSDACSE10924-.LLSDACSB10924
.LLSDACSB10924:
	.uleb128 .LEHB6-.LFB10924
	.uleb128 .LEHE6-.LEHB6
	.uleb128 .L91-.LFB10924
	.uleb128 0
	.uleb128 .LEHB7-.LFB10924
	.uleb128 .LEHE7-.LEHB7
	.uleb128 0
	.uleb128 0
.LLSDACSE10924:
	.section	.text._ZSt12__str_concatINSt7__cxx1112basic_stringIcSt11char_traitsIcESaIcEEEET_PKNS6_10value_typeENS6_9size_typeES9_SA_RKNS6_14allocator_typeE,"axG",@progbits,_ZSt12__str_concatINSt7__cxx1112basic_stringIcSt11char_traitsIcESaIcEEEET_PKNS6_10value_typeENS6_9size_typeES9_SA_RKNS6_14allocator_typeE,comdat
	.size	_ZSt12__str_concatINSt7__cxx1112basic_stringIcSt11char_traitsIcESaIcEEEET_PKNS6_10value_typeENS6_9size_typeES9_SA_RKNS6_14allocator_typeE, .-_ZSt12__str_concatINSt7__cxx1112basic_stringIcSt11char_traitsIcESaIcEEEET_PKNS6_10value_typeENS6_9size_typeES9_SA_RKNS6_14allocator_typeE
	.section	.text._ZNSt12_Vector_baseISt5arrayIxLm2EESaIS1_EE17_Vector_impl_dataC2Ev,"axG",@progbits,_ZNSt12_Vector_baseISt5arrayIxLm2EESaIS1_EE17_Vector_impl_dataC5Ev,comdat
	.align 2
	.weak	_ZNSt12_Vector_baseISt5arrayIxLm2EESaIS1_EE17_Vector_impl_dataC2Ev
	.type	_ZNSt12_Vector_baseISt5arrayIxLm2EESaIS1_EE17_Vector_impl_dataC2Ev, @function
_ZNSt12_Vector_baseISt5arrayIxLm2EESaIS1_EE17_Vector_impl_dataC2Ev:
.LFB10929:
	.loc 3 99 2
	.cfi_startproc
	endbr64
	pushq	%rbp
	.cfi_def_cfa_offset 16
	.cfi_offset 6, -16
	movq	%rsp, %rbp
	.cfi_def_cfa_register 6
	movq	%rdi, -8(%rbp)
.LBB163:
	.loc 3 100 4
	movq	-8(%rbp), %rax
	movq	$0, (%rax)
	.loc 3 100 16
	movq	-8(%rbp), %rax
	movq	$0, 8(%rax)
	.loc 3 100 29
	movq	-8(%rbp), %rax
	movq	$0, 16(%rax)
.LBE163:
	.loc 3 101 4
	nop
	popq	%rbp
	.cfi_def_cfa 7, 8
	ret
	.cfi_endproc
.LFE10929:
	.size	_ZNSt12_Vector_baseISt5arrayIxLm2EESaIS1_EE17_Vector_impl_dataC2Ev, .-_ZNSt12_Vector_baseISt5arrayIxLm2EESaIS1_EE17_Vector_impl_dataC2Ev
	.weak	_ZNSt12_Vector_baseISt5arrayIxLm2EESaIS1_EE17_Vector_impl_dataC1Ev
	.set	_ZNSt12_Vector_baseISt5arrayIxLm2EESaIS1_EE17_Vector_impl_dataC1Ev,_ZNSt12_Vector_baseISt5arrayIxLm2EESaIS1_EE17_Vector_impl_dataC2Ev
	.section	.text._ZNSt15__new_allocatorISt5arrayIxLm2EEED2Ev,"axG",@progbits,_ZNSt15__new_allocatorISt5arrayIxLm2EEED5Ev,comdat
	.align 2
	.weak	_ZNSt15__new_allocatorISt5arrayIxLm2EEED2Ev
	.type	_ZNSt15__new_allocatorISt5arrayIxLm2EEED2Ev, @function
_ZNSt15__new_allocatorISt5arrayIxLm2EEED2Ev:
.LFB10932:
	.loc 9 104 7
	.cfi_startproc
	endbr64
	pushq	%rbp
	.cfi_def_cfa_offset 16
	.cfi_offset 6, -16
	movq	%rsp, %rbp
	.cfi_def_cfa_register 6
	movq	%rdi, -8(%rbp)
	.loc 9 104 50
	nop
	popq	%rbp
	.cfi_def_cfa 7, 8
	ret
	.cfi_endproc
.LFE10932:
	.size	_ZNSt15__new_allocatorISt5arrayIxLm2EEED2Ev, .-_ZNSt15__new_allocatorISt5arrayIxLm2EEED2Ev
	.weak	_ZNSt15__new_allocatorISt5arrayIxLm2EEED1Ev
	.set	_ZNSt15__new_allocatorISt5arrayIxLm2EEED1Ev,_ZNSt15__new_allocatorISt5arrayIxLm2EEED2Ev
	.section	.text._ZNSt12_Vector_baseISt5arrayIxLm2EESaIS1_EE13_M_deallocateEPS1_m,"axG",@progbits,_ZNSt12_Vector_baseISt5arrayIxLm2EESaIS1_EE13_M_deallocateEPS1_m,comdat
	.align 2
	.weak	_ZNSt12_Vector_baseISt5arrayIxLm2EESaIS1_EE13_M_deallocateEPS1_m
	.type	_ZNSt12_Vector_baseISt5arrayIxLm2EESaIS1_EE13_M_deallocateEPS1_m, @function
_ZNSt12_Vector_baseISt5arrayIxLm2EESaIS1_EE13_M_deallocateEPS1_m:
.LFB10934:
	.loc 3 386 7
	.cfi_startproc
	endbr64
	pushq	%rbp
	.cfi_def_cfa_offset 16
	.cfi_offset 6, -16
	movq	%rsp, %rbp
	.cfi_def_cfa_register 6
	subq	$64, %rsp
	movq	%rdi, -40(%rbp)
	movq	%rsi, -48(%rbp)
	movq	%rdx, -56(%rbp)
	.loc 3 389 2
	cmpq	$0, -48(%rbp)
	je	.L97
	.loc 3 390 20
	movq	-40(%rbp), %rax
	movq	%rax, -24(%rbp)
	movq	-48(%rbp), %rax
	movq	%rax, -16(%rbp)
	movq	-56(%rbp), %rax
	movq	%rax, -8(%rbp)
.LBB164:
.LBB165:
	.loc 10 517 23
	movq	-8(%rbp), %rdx
	movq	-16(%rbp), %rcx
	movq	-24(%rbp), %rax
	movq	%rcx, %rsi
	movq	%rax, %rdi
	call	_ZNSt15__new_allocatorISt5arrayIxLm2EEE10deallocateEPS1_m
	.loc 10 517 35
	nop
.L97:
.LBE165:
.LBE164:
	.loc 3 391 7
	nop
	leave
	.cfi_def_cfa 7, 8
	ret
	.cfi_endproc
.LFE10934:
	.size	_ZNSt12_Vector_baseISt5arrayIxLm2EESaIS1_EE13_M_deallocateEPS1_m, .-_ZNSt12_Vector_baseISt5arrayIxLm2EESaIS1_EE13_M_deallocateEPS1_m
	.section	.text._ZNSt12_Vector_baseISt5arrayIxLm2EESaIS1_EE19_M_get_Tp_allocatorEv,"axG",@progbits,_ZNSt12_Vector_baseISt5arrayIxLm2EESaIS1_EE19_M_get_Tp_allocatorEv,comdat
	.align 2
	.weak	_ZNSt12_Vector_baseISt5arrayIxLm2EESaIS1_EE19_M_get_Tp_allocatorEv
	.type	_ZNSt12_Vector_baseISt5arrayIxLm2EESaIS1_EE19_M_get_Tp_allocatorEv, @function
_ZNSt12_Vector_baseISt5arrayIxLm2EESaIS1_EE19_M_get_Tp_allocatorEv:
.LFB10935:
	.loc 3 301 7
	.cfi_startproc
	endbr64
	pushq	%rbp
	.cfi_def_cfa_offset 16
	.cfi_offset 6, -16
	movq	%rsp, %rbp
	.cfi_def_cfa_register 6
	movq	%rdi, -8(%rbp)
	.loc 3 302 22
	movq	-8(%rbp), %rax
	.loc 3 302 31
	popq	%rbp
	.cfi_def_cfa 7, 8
	ret
	.cfi_endproc
.LFE10935:
	.size	_ZNSt12_Vector_baseISt5arrayIxLm2EESaIS1_EE19_M_get_Tp_allocatorEv, .-_ZNSt12_Vector_baseISt5arrayIxLm2EESaIS1_EE19_M_get_Tp_allocatorEv
	.section	.text._ZSt4moveIRSt5arrayIxLm2EEEONSt16remove_referenceIT_E4typeEOS4_,"axG",@progbits,_ZSt4moveIRSt5arrayIxLm2EEEONSt16remove_referenceIT_E4typeEOS4_,comdat
	.weak	_ZSt4moveIRSt5arrayIxLm2EEEONSt16remove_referenceIT_E4typeEOS4_
	.type	_ZSt4moveIRSt5arrayIxLm2EEEONSt16remove_referenceIT_E4typeEOS4_, @function
_ZSt4moveIRSt5arrayIxLm2EEEONSt16remove_referenceIT_E4typeEOS4_:
.LFB10937:
	.loc 6 97 5
	.cfi_startproc
	endbr64
	pushq	%rbp
	.cfi_def_cfa_offset 16
	.cfi_offset 6, -16
	movq	%rsp, %rbp
	.cfi_def_cfa_register 6
	movq	%rdi, -8(%rbp)
	.loc 6 98 74
	movq	-8(%rbp), %rax
	.loc 6 98 77
	popq	%rbp
	.cfi_def_cfa 7, 8
	ret
	.cfi_endproc
.LFE10937:
	.size	_ZSt4moveIRSt5arrayIxLm2EEEONSt16remove_referenceIT_E4typeEOS4_, .-_ZSt4moveIRSt5arrayIxLm2EEEONSt16remove_referenceIT_E4typeEOS4_
	.section	.text._ZNSt6vectorISt5arrayIxLm2EESaIS1_EE12emplace_backIJS1_EEERS1_DpOT_,"axG",@progbits,_ZNSt6vectorISt5arrayIxLm2EESaIS1_EE12emplace_backIJS1_EEERS1_DpOT_,comdat
	.align 2
	.weak	_ZNSt6vectorISt5arrayIxLm2EESaIS1_EE12emplace_backIJS1_EEERS1_DpOT_
	.type	_ZNSt6vectorISt5arrayIxLm2EESaIS1_EE12emplace_backIJS1_EEERS1_DpOT_, @function
_ZNSt6vectorISt5arrayIxLm2EESaIS1_EE12emplace_backIJS1_EEERS1_DpOT_:
.LFB10938:
	.file 14 "/usr/include/c++/13/bits/vector.tcc"
	.loc 14 111 7
	.cfi_startproc
	endbr64
	pushq	%rbp
	.cfi_def_cfa_offset 16
	.cfi_offset 6, -16
	movq	%rsp, %rbp
	.cfi_def_cfa_register 6
	pushq	%rbx
	subq	$72, %rsp
	.cfi_offset 3, -24
	movq	%rdi, -72(%rbp)
	movq	%rsi, -80(%rbp)
	.loc 14 114 20
	movq	-72(%rbp), %rax
	movq	8(%rax), %rdx
	.loc 14 114 47
	movq	-72(%rbp), %rax
	movq	16(%rax), %rax
	.loc 14 114 2
	cmpq	%rax, %rdx
	je	.L103
	.loc 14 117 30
	movq	-80(%rbp), %rax
	movq	%rax, %rdi
	call	_ZSt7forwardISt5arrayIxLm2EEEOT_RNSt16remove_referenceIS2_E4typeE
	.loc 14 117 30 is_stmt 0 discriminator 1
	movq	-72(%rbp), %rdx
	movq	8(%rdx), %rdx
	.loc 14 117 37 is_stmt 1 discriminator 1
	movq	-72(%rbp), %rcx
	movq	%rcx, -64(%rbp)
	movq	%rdx, -56(%rbp)
	movq	%rax, -48(%rbp)
.LBB166:
.LBB167:
	.loc 10 538 17
	movq	-48(%rbp), %rax
	movq	%rax, %rdi
	call	_ZSt7forwardISt5arrayIxLm2EEEOT_RNSt16remove_referenceIS2_E4typeE
	movq	-64(%rbp), %rdx
	movq	%rdx, -40(%rbp)
	movq	-56(%rbp), %rdx
	movq	%rdx, -32(%rbp)
	movq	%rax, -24(%rbp)
.LBB168:
.LBB169:
	.loc 9 191 10
	movq	-32(%rbp), %rax
	.loc 9 191 4
	movq	%rax, %rsi
	movl	$16, %edi
	call	_ZnwmPv
	movq	%rax, %rbx
	.loc 9 191 46 discriminator 1
	movq	-24(%rbp), %rax
	movq	%rax, %rdi
	call	_ZSt7forwardISt5arrayIxLm2EEEOT_RNSt16remove_referenceIS2_E4typeE
	.loc 9 191 4 discriminator 2
	movq	8(%rax), %rdx
	movq	(%rax), %rax
	movq	%rax, (%rbx)
	movq	%rdx, 8(%rbx)
	.loc 9 191 60
	nop
.LBE169:
.LBE168:
	.loc 10 542 2
	nop
.LBE167:
.LBE166:
	.loc 14 119 22
	movq	-72(%rbp), %rax
	movq	8(%rax), %rax
	.loc 14 119 6
	leaq	16(%rax), %rdx
	movq	-72(%rbp), %rax
	movq	%rdx, 8(%rax)
	jmp	.L104
.L103:
	.loc 14 123 21
	movq	-80(%rbp), %rax
	movq	%rax, %rdi
	call	_ZSt7forwardISt5arrayIxLm2EEEOT_RNSt16remove_referenceIS2_E4typeE
	movq	%rax, %rbx
	.loc 14 123 21 is_stmt 0 discriminator 1
	movq	-72(%rbp), %rax
	movq	%rax, %rdi
	call	_ZNSt6vectorISt5arrayIxLm2EESaIS1_EE3endEv
	movq	%rax, %rcx
	.loc 14 123 21 discriminator 2
	movq	-72(%rbp), %rax
	movq	%rbx, %rdx
	movq	%rcx, %rsi
	movq	%rax, %rdi
	call	_ZNSt6vectorISt5arrayIxLm2EESaIS1_EE17_M_realloc_insertIJS1_EEEvN9__gnu_cxx17__normal_iteratorIPS1_S3_EEDpOT_
.L104:
	.loc 14 125 13 is_stmt 1
	movq	-72(%rbp), %rax
	movq	%rax, %rdi
	call	_ZNSt6vectorISt5arrayIxLm2EESaIS1_EE4backEv
	.loc 14 127 7
	movq	-8(%rbp), %rbx
	leave
	.cfi_def_cfa 7, 8
	ret
	.cfi_endproc
.LFE10938:
	.size	_ZNSt6vectorISt5arrayIxLm2EESaIS1_EE12emplace_backIJS1_EEERS1_DpOT_, .-_ZNSt6vectorISt5arrayIxLm2EESaIS1_EE12emplace_backIJS1_EEERS1_DpOT_
	.section	.text._ZN9__gnu_cxx17__normal_iteratorIPcNSt7__cxx1112basic_stringIcSt11char_traitsIcESaIcEEEEC2ERKS1_,"axG",@progbits,_ZN9__gnu_cxx17__normal_iteratorIPcNSt7__cxx1112basic_stringIcSt11char_traitsIcESaIcEEEEC5ERKS1_,comdat
	.align 2
	.weak	_ZN9__gnu_cxx17__normal_iteratorIPcNSt7__cxx1112basic_stringIcSt11char_traitsIcESaIcEEEEC2ERKS1_
	.type	_ZN9__gnu_cxx17__normal_iteratorIPcNSt7__cxx1112basic_stringIcSt11char_traitsIcESaIcEEEEC2ERKS1_, @function
_ZN9__gnu_cxx17__normal_iteratorIPcNSt7__cxx1112basic_stringIcSt11char_traitsIcESaIcEEEEC2ERKS1_:
.LFB10941:
	.loc 11 1076 7
	.cfi_startproc
	endbr64
	pushq	%rbp
	.cfi_def_cfa_offset 16
	.cfi_offset 6, -16
	movq	%rsp, %rbp
	.cfi_def_cfa_register 6
	movq	%rdi, -8(%rbp)
	movq	%rsi, -16(%rbp)
.LBB170:
	.loc 11 1077 9
	movq	-16(%rbp), %rax
	movq	(%rax), %rdx
	movq	-8(%rbp), %rax
	movq	%rdx, (%rax)
.LBE170:
	.loc 11 1077 27
	nop
	popq	%rbp
	.cfi_def_cfa 7, 8
	ret
	.cfi_endproc
.LFE10941:
	.size	_ZN9__gnu_cxx17__normal_iteratorIPcNSt7__cxx1112basic_stringIcSt11char_traitsIcESaIcEEEEC2ERKS1_, .-_ZN9__gnu_cxx17__normal_iteratorIPcNSt7__cxx1112basic_stringIcSt11char_traitsIcESaIcEEEEC2ERKS1_
	.weak	_ZN9__gnu_cxx17__normal_iteratorIPcNSt7__cxx1112basic_stringIcSt11char_traitsIcESaIcEEEEC1ERKS1_
	.set	_ZN9__gnu_cxx17__normal_iteratorIPcNSt7__cxx1112basic_stringIcSt11char_traitsIcESaIcEEEEC1ERKS1_,_ZN9__gnu_cxx17__normal_iteratorIPcNSt7__cxx1112basic_stringIcSt11char_traitsIcESaIcEEEEC2ERKS1_
	.section	.text._ZN9__gnu_cxx5__ops17__iter_equals_valIKcEENS0_16_Iter_equals_valIT_EERS4_,"axG",@progbits,_ZN9__gnu_cxx5__ops17__iter_equals_valIKcEENS0_16_Iter_equals_valIT_EERS4_,comdat
	.weak	_ZN9__gnu_cxx5__ops17__iter_equals_valIKcEENS0_16_Iter_equals_valIT_EERS4_
	.type	_ZN9__gnu_cxx5__ops17__iter_equals_valIKcEENS0_16_Iter_equals_valIT_EERS4_, @function
_ZN9__gnu_cxx5__ops17__iter_equals_valIKcEENS0_16_Iter_equals_valIT_EERS4_:
.LFB10943:
	.file 15 "/usr/include/c++/13/bits/predefined_ops.h"
	.loc 15 276 5
	.cfi_startproc
	endbr64
	pushq	%rbp
	.cfi_def_cfa_offset 16
	.cfi_offset 6, -16
	movq	%rsp, %rbp
	.cfi_def_cfa_register 6
	subq	$32, %rsp
	movq	%rdi, -24(%rbp)
	.loc 15 276 5
	movq	%fs:40, %rax
	movq	%rax, -8(%rbp)
	xorl	%eax, %eax
	.loc 15 277 14
	movq	-24(%rbp), %rdx
	leaq	-16(%rbp), %rax
	movq	%rdx, %rsi
	movq	%rax, %rdi
	call	_ZN9__gnu_cxx5__ops16_Iter_equals_valIKcEC1ERS2_
	.loc 15 277 44 discriminator 1
	movq	-16(%rbp), %rax
	.loc 15 277 47
	movq	-8(%rbp), %rdx
	subq	%fs:40, %rdx
	je	.L109
	call	__stack_chk_fail@PLT
.L109:
	leave
	.cfi_def_cfa 7, 8
	ret
	.cfi_endproc
.LFE10943:
	.size	_ZN9__gnu_cxx5__ops17__iter_equals_valIKcEENS0_16_Iter_equals_valIT_EERS4_, .-_ZN9__gnu_cxx5__ops17__iter_equals_valIKcEENS0_16_Iter_equals_valIT_EERS4_
	.section	.text._ZSt10__count_ifIN9__gnu_cxx17__normal_iteratorIPcNSt7__cxx1112basic_stringIcSt11char_traitsIcESaIcEEEEENS0_5__ops16_Iter_equals_valIKcEEENSt15iterator_traitsIT_E15difference_typeESF_SF_T0_,"axG",@progbits,_ZSt10__count_ifIN9__gnu_cxx17__normal_iteratorIPcNSt7__cxx1112basic_stringIcSt11char_traitsIcESaIcEEEEENS0_5__ops16_Iter_equals_valIKcEEENSt15iterator_traitsIT_E15difference_typeESF_SF_T0_,comdat
	.weak	_ZSt10__count_ifIN9__gnu_cxx17__normal_iteratorIPcNSt7__cxx1112basic_stringIcSt11char_traitsIcESaIcEEEEENS0_5__ops16_Iter_equals_valIKcEEENSt15iterator_traitsIT_E15difference_typeESF_SF_T0_
	.type	_ZSt10__count_ifIN9__gnu_cxx17__normal_iteratorIPcNSt7__cxx1112basic_stringIcSt11char_traitsIcESaIcEEEEENS0_5__ops16_Iter_equals_valIKcEEENSt15iterator_traitsIT_E15difference_typeESF_SF_T0_, @function
_ZSt10__count_ifIN9__gnu_cxx17__normal_iteratorIPcNSt7__cxx1112basic_stringIcSt11char_traitsIcESaIcEEEEENS0_5__ops16_Iter_equals_valIKcEEENSt15iterator_traitsIT_E15difference_typeESF_SF_T0_:
.LFB10944:
	.loc 2 2124 5
	.cfi_startproc
	endbr64
	pushq	%rbp
	.cfi_def_cfa_offset 16
	.cfi_offset 6, -16
	movq	%rsp, %rbp
	.cfi_def_cfa_register 6
	subq	$48, %rsp
	movq	%rdi, -24(%rbp)
	movq	%rsi, -32(%rbp)
	movq	%rdx, -40(%rbp)
	.loc 2 2126 65
	movq	$0, -8(%rbp)
	.loc 2 2127 7
	jmp	.L111
.L113:
	.loc 2 2128 12
	movq	-24(%rbp), %rdx
	leaq	-40(%rbp), %rax
	movq	%rdx, %rsi
	movq	%rax, %rdi
	call	_ZN9__gnu_cxx5__ops16_Iter_equals_valIKcEclINS_17__normal_iteratorIPcNSt7__cxx1112basic_stringIcSt11char_traitsIcESaIcEEEEEEEbT_
	.loc 2 2128 2 discriminator 1
	testb	%al, %al
	je	.L112
	.loc 2 2129 4
	addq	$1, -8(%rbp)
.L112:
	.loc 2 2127 33
	leaq	-24(%rbp), %rax
	movq	%rax, %rdi
	call	_ZN9__gnu_cxx17__normal_iteratorIPcNSt7__cxx1112basic_stringIcSt11char_traitsIcESaIcEEEEppEv
.L111:
	.loc 2 2127 22 discriminator 1
	leaq	-32(%rbp), %rdx
	leaq	-24(%rbp), %rax
	movq	%rdx, %rsi
	movq	%rax, %rdi
	call	_ZN9__gnu_cxxneIPcNSt7__cxx1112basic_stringIcSt11char_traitsIcESaIcEEEEEbRKNS_17__normal_iteratorIT_T0_EESD_
	testb	%al, %al
	jne	.L113
	.loc 2 2130 14
	movq	-8(%rbp), %rax
	.loc 2 2131 5
	leave
	.cfi_def_cfa 7, 8
	ret
	.cfi_endproc
.LFE10944:
	.size	_ZSt10__count_ifIN9__gnu_cxx17__normal_iteratorIPcNSt7__cxx1112basic_stringIcSt11char_traitsIcESaIcEEEEENS0_5__ops16_Iter_equals_valIKcEEENSt15iterator_traitsIT_E15difference_typeESF_SF_T0_, .-_ZSt10__count_ifIN9__gnu_cxx17__normal_iteratorIPcNSt7__cxx1112basic_stringIcSt11char_traitsIcESaIcEEEEENS0_5__ops16_Iter_equals_valIKcEEENSt15iterator_traitsIT_E15difference_typeESF_SF_T0_
	.section	.text._ZSt8_DestroyIPSt5arrayIxLm2EEEvT_S3_,"axG",@progbits,_ZSt8_DestroyIPSt5arrayIxLm2EEEvT_S3_,comdat
	.weak	_ZSt8_DestroyIPSt5arrayIxLm2EEEvT_S3_
	.type	_ZSt8_DestroyIPSt5arrayIxLm2EEEvT_S3_, @function
_ZSt8_DestroyIPSt5arrayIxLm2EEEvT_S3_:
.LFB11161:
	.file 16 "/usr/include/c++/13/bits/stl_construct.h"
	.loc 16 182 5
	.cfi_startproc
	endbr64
	pushq	%rbp
	.cfi_def_cfa_offset 16
	.cfi_offset 6, -16
	movq	%rsp, %rbp
	.cfi_def_cfa_register 6
	subq	$16, %rsp
	movq	%rdi, -8(%rbp)
	movq	%rsi, -16(%rbp)
	.loc 16 196 11
	movq	-16(%rbp), %rdx
	movq	-8(%rbp), %rax
	movq	%rdx, %rsi
	movq	%rax, %rdi
	call	_ZNSt12_Destroy_auxILb1EE9__destroyIPSt5arrayIxLm2EEEEvT_S5_
	.loc 16 197 5
	nop
	leave
	.cfi_def_cfa 7, 8
	ret
	.cfi_endproc
.LFE11161:
	.size	_ZSt8_DestroyIPSt5arrayIxLm2EEEvT_S3_, .-_ZSt8_DestroyIPSt5arrayIxLm2EEEvT_S3_
	.section	.text._ZSt7forwardISt5arrayIxLm2EEEOT_RNSt16remove_referenceIS2_E4typeE,"axG",@progbits,_ZSt7forwardISt5arrayIxLm2EEEOT_RNSt16remove_referenceIS2_E4typeE,comdat
	.weak	_ZSt7forwardISt5arrayIxLm2EEEOT_RNSt16remove_referenceIS2_E4typeE
	.type	_ZSt7forwardISt5arrayIxLm2EEEOT_RNSt16remove_referenceIS2_E4typeE, @function
_ZSt7forwardISt5arrayIxLm2EEEOT_RNSt16remove_referenceIS2_E4typeE:
.LFB11162:
	.loc 6 70 5
	.cfi_startproc
	endbr64
	pushq	%rbp
	.cfi_def_cfa_offset 16
	.cfi_offset 6, -16
	movq	%rsp, %rbp
	.cfi_def_cfa_register 6
	movq	%rdi, -8(%rbp)
	.loc 6 71 36
	movq	-8(%rbp), %rax
	.loc 6 71 39
	popq	%rbp
	.cfi_def_cfa 7, 8
	ret
	.cfi_endproc
.LFE11162:
	.size	_ZSt7forwardISt5arrayIxLm2EEEOT_RNSt16remove_referenceIS2_E4typeE, .-_ZSt7forwardISt5arrayIxLm2EEEOT_RNSt16remove_referenceIS2_E4typeE
	.section	.text._ZNSt6vectorISt5arrayIxLm2EESaIS1_EE3endEv,"axG",@progbits,_ZNSt6vectorISt5arrayIxLm2EESaIS1_EE3endEv,comdat
	.align 2
	.weak	_ZNSt6vectorISt5arrayIxLm2EESaIS1_EE3endEv
	.type	_ZNSt6vectorISt5arrayIxLm2EESaIS1_EE3endEv, @function
_ZNSt6vectorISt5arrayIxLm2EESaIS1_EE3endEv:
.LFB11164:
	.loc 3 893 7
	.cfi_startproc
	endbr64
	pushq	%rbp
	.cfi_def_cfa_offset 16
	.cfi_offset 6, -16
	movq	%rsp, %rbp
	.cfi_def_cfa_register 6
	subq	$32, %rsp
	movq	%rdi, -24(%rbp)
	.loc 3 893 7
	movq	%fs:40, %rax
	movq	%rax, -8(%rbp)
	xorl	%eax, %eax
	.loc 3 894 39
	movq	-24(%rbp), %rax
	leaq	8(%rax), %rdx
	.loc 3 894 16
	leaq	-16(%rbp), %rax
	movq	%rdx, %rsi
	movq	%rax, %rdi
	call	_ZN9__gnu_cxx17__normal_iteratorIPSt5arrayIxLm2EESt6vectorIS2_SaIS2_EEEC1ERKS3_
	.loc 3 894 48 discriminator 1
	movq	-16(%rbp), %rax
	.loc 3 894 51
	movq	-8(%rbp), %rdx
	subq	%fs:40, %rdx
	je	.L120
	call	__stack_chk_fail@PLT
.L120:
	leave
	.cfi_def_cfa 7, 8
	ret
	.cfi_endproc
.LFE11164:
	.size	_ZNSt6vectorISt5arrayIxLm2EESaIS1_EE3endEv, .-_ZNSt6vectorISt5arrayIxLm2EESaIS1_EE3endEv
	.section	.rodata
.LC0:
	.string	"vector::_M_realloc_insert"
	.section	.text._ZNSt6vectorISt5arrayIxLm2EESaIS1_EE17_M_realloc_insertIJS1_EEEvN9__gnu_cxx17__normal_iteratorIPS1_S3_EEDpOT_,"axG",@progbits,_ZNSt6vectorISt5arrayIxLm2EESaIS1_EE17_M_realloc_insertIJS1_EEEvN9__gnu_cxx17__normal_iteratorIPS1_S3_EEDpOT_,comdat
	.align 2
	.weak	_ZNSt6vectorISt5arrayIxLm2EESaIS1_EE17_M_realloc_insertIJS1_EEEvN9__gnu_cxx17__normal_iteratorIPS1_S3_EEDpOT_
	.type	_ZNSt6vectorISt5arrayIxLm2EESaIS1_EE17_M_realloc_insertIJS1_EEEvN9__gnu_cxx17__normal_iteratorIPS1_S3_EEDpOT_, @function
_ZNSt6vectorISt5arrayIxLm2EESaIS1_EE17_M_realloc_insertIJS1_EEEvN9__gnu_cxx17__normal_iteratorIPS1_S3_EEDpOT_:
.LFB11165:
	.loc 14 445 7
	.cfi_startproc
	endbr64
	pushq	%rbp
	.cfi_def_cfa_offset 16
	.cfi_offset 6, -16
	movq	%rsp, %rbp
	.cfi_def_cfa_register 6
	pushq	%rbx
	subq	$152, %rsp
	.cfi_offset 3, -24
	movq	%rdi, -136(%rbp)
	movq	%rsi, -144(%rbp)
	movq	%rdx, -152(%rbp)
	.loc 14 445 7
	movq	%fs:40, %rax
	movq	%rax, -24(%rbp)
	xorl	%eax, %eax
	.loc 14 455 14
	movq	-136(%rbp), %rax
	leaq	.LC0(%rip), %rdx
	movl	$1, %esi
	movq	%rax, %rdi
	call	_ZNKSt6vectorISt5arrayIxLm2EESaIS1_EE12_M_check_lenEmPKc
	.loc 14 455 14 is_stmt 0 discriminator 1
	movq	%rax, -120(%rbp)
	.loc 14 456 15 is_stmt 1
	movq	-136(%rbp), %rax
	movq	(%rax), %rax
	movq	%rax, -112(%rbp)
	.loc 14 457 15
	movq	-136(%rbp), %rax
	movq	8(%rax), %rax
	movq	%rax, -104(%rbp)
	.loc 14 458 58
	movq	-136(%rbp), %rax
	movq	%rax, %rdi
	call	_ZNSt6vectorISt5arrayIxLm2EESaIS1_EE5beginEv
	movq	%rax, -128(%rbp)
	.loc 14 458 51 discriminator 1
	leaq	-128(%rbp), %rdx
	leaq	-144(%rbp), %rax
	movq	%rdx, %rsi
	movq	%rax, %rdi
	call	_ZN9__gnu_cxxmiIPSt5arrayIxLm2EESt6vectorIS2_SaIS2_EEEENS_17__normal_iteratorIT_T0_E15difference_typeERKSA_SD_
	.loc 14 458 23 discriminator 2
	movq	%rax, -96(%rbp)
	.loc 14 459 44
	movq	-136(%rbp), %rax
	movq	-120(%rbp), %rdx
	movq	%rdx, %rsi
	movq	%rax, %rdi
	call	_ZNSt12_Vector_baseISt5arrayIxLm2EESaIS1_EE11_M_allocateEm
	.loc 14 459 44 is_stmt 0 discriminator 1
	movq	%rax, -88(%rbp)
	.loc 14 460 15 is_stmt 1
	movq	-88(%rbp), %rax
	movq	%rax, -80(%rbp)
	.loc 14 468 28
	movq	-152(%rbp), %rax
	movq	%rax, %rdi
	call	_ZSt7forwardISt5arrayIxLm2EEEOT_RNSt16remove_referenceIS2_E4typeE
	.loc 14 469 20
	movq	-96(%rbp), %rdx
	movq	%rdx, %rcx
	salq	$4, %rcx
	.loc 14 468 28
	movq	-88(%rbp), %rdx
	addq	%rdx, %rcx
	.loc 14 468 35
	movq	-136(%rbp), %rdx
	movq	%rdx, -72(%rbp)
	movq	%rcx, -64(%rbp)
	movq	%rax, -56(%rbp)
.LBB171:
.LBB172:
	.loc 10 538 17
	movq	-56(%rbp), %rax
	movq	%rax, %rdi
	call	_ZSt7forwardISt5arrayIxLm2EEEOT_RNSt16remove_referenceIS2_E4typeE
	movq	-72(%rbp), %rdx
	movq	%rdx, -48(%rbp)
	movq	-64(%rbp), %rdx
	movq	%rdx, -40(%rbp)
	movq	%rax, -32(%rbp)
.LBB173:
.LBB174:
	.loc 9 191 10
	movq	-40(%rbp), %rax
	.loc 9 191 4
	movq	%rax, %rsi
	movl	$16, %edi
	call	_ZnwmPv
	movq	%rax, %rbx
	.loc 9 191 46 discriminator 1
	movq	-32(%rbp), %rax
	movq	%rax, %rdi
	call	_ZSt7forwardISt5arrayIxLm2EEEOT_RNSt16remove_referenceIS2_E4typeE
	.loc 9 191 4 discriminator 2
	movq	8(%rax), %rdx
	movq	(%rax), %rax
	movq	%rax, (%rbx)
	movq	%rdx, 8(%rbx)
	.loc 9 191 60
	nop
.LBE174:
.LBE173:
	.loc 10 542 2
	nop
.LBE172:
.LBE171:
	.loc 14 475 17
	movq	$0, -80(%rbp)
	.loc 14 481 39
	movq	-136(%rbp), %rax
	movq	%rax, %rdi
	call	_ZNSt12_Vector_baseISt5arrayIxLm2EESaIS1_EE19_M_get_Tp_allocatorEv
	movq	%rax, %rbx
	.loc 14 480 63
	leaq	-144(%rbp), %rax
	movq	%rax, %rdi
	call	_ZNK9__gnu_cxx17__normal_iteratorIPSt5arrayIxLm2EESt6vectorIS2_SaIS2_EEE4baseEv
	.loc 14 480 34 discriminator 1
	movq	(%rax), %rsi
	movq	-88(%rbp), %rdx
	movq	-112(%rbp), %rax
	movq	%rbx, %rcx
	movq	%rax, %rdi
	call	_ZNSt6vectorISt5arrayIxLm2EESaIS1_EE11_S_relocateEPS1_S4_S4_RS2_
	movq	%rax, -80(%rbp)
	.loc 14 483 8
	addq	$16, -80(%rbp)
	.loc 14 486 40
	movq	-136(%rbp), %rax
	movq	%rax, %rdi
	call	_ZNSt12_Vector_baseISt5arrayIxLm2EESaIS1_EE19_M_get_Tp_allocatorEv
	movq	%rax, %rbx
	.loc 14 485 50
	leaq	-144(%rbp), %rax
	movq	%rax, %rdi
	call	_ZNK9__gnu_cxx17__normal_iteratorIPSt5arrayIxLm2EESt6vectorIS2_SaIS2_EEE4baseEv
	.loc 14 485 34 discriminator 1
	movq	(%rax), %rax
	movq	-80(%rbp), %rdx
	movq	-104(%rbp), %rsi
	movq	%rbx, %rcx
	movq	%rax, %rdi
	call	_ZNSt6vectorISt5arrayIxLm2EESaIS1_EE11_S_relocateEPS1_S4_S4_RS2_
	movq	%rax, -80(%rbp)
	.loc 14 519 20
	movq	-136(%rbp), %rax
	.loc 14 520 21
	movq	-136(%rbp), %rdx
	movq	16(%rdx), %rdx
	.loc 14 520 39
	subq	-112(%rbp), %rdx
	sarq	$4, %rdx
	.loc 14 519 20
	movq	-112(%rbp), %rcx
	movq	%rcx, %rsi
	movq	%rax, %rdi
	call	_ZNSt12_Vector_baseISt5arrayIxLm2EESaIS1_EE13_M_deallocateEPS1_m
	.loc 14 521 30
	movq	-136(%rbp), %rax
	movq	-88(%rbp), %rdx
	movq	%rdx, (%rax)
	.loc 14 522 31
	movq	-136(%rbp), %rax
	movq	-80(%rbp), %rdx
	movq	%rdx, 8(%rax)
	.loc 14 523 53
	movq	-120(%rbp), %rax
	salq	$4, %rax
	movq	%rax, %rdx
	movq	-88(%rbp), %rax
	addq	%rax, %rdx
	.loc 14 523 39
	movq	-136(%rbp), %rax
	movq	%rdx, 16(%rax)
	.loc 14 524 5
	nop
	movq	-24(%rbp), %rax
	subq	%fs:40, %rax
	je	.L122
	call	__stack_chk_fail@PLT
.L122:
	movq	-8(%rbp), %rbx
	leave
	.cfi_def_cfa 7, 8
	ret
	.cfi_endproc
.LFE11165:
	.size	_ZNSt6vectorISt5arrayIxLm2EESaIS1_EE17_M_realloc_insertIJS1_EEEvN9__gnu_cxx17__normal_iteratorIPS1_S3_EEDpOT_, .-_ZNSt6vectorISt5arrayIxLm2EESaIS1_EE17_M_realloc_insertIJS1_EEEvN9__gnu_cxx17__normal_iteratorIPS1_S3_EEDpOT_
	.section	.text._ZNSt6vectorISt5arrayIxLm2EESaIS1_EE4backEv,"axG",@progbits,_ZNSt6vectorISt5arrayIxLm2EESaIS1_EE4backEv,comdat
	.align 2
	.weak	_ZNSt6vectorISt5arrayIxLm2EESaIS1_EE4backEv
	.type	_ZNSt6vectorISt5arrayIxLm2EESaIS1_EE4backEv, @function
_ZNSt6vectorISt5arrayIxLm2EESaIS1_EE4backEv:
.LFB11169:
	.loc 3 1233 7
	.cfi_startproc
	endbr64
	pushq	%rbp
	.cfi_def_cfa_offset 16
	.cfi_offset 6, -16
	movq	%rsp, %rbp
	.cfi_def_cfa_register 6
	subq	$48, %rsp
	movq	%rdi, -40(%rbp)
	.loc 3 1233 7
	movq	%fs:40, %rax
	movq	%rax, -8(%rbp)
	xorl	%eax, %eax
	.loc 3 1236 14
	movq	-40(%rbp), %rax
	movq	%rax, %rdi
	call	_ZNSt6vectorISt5arrayIxLm2EESaIS1_EE3endEv
	movq	%rax, -24(%rbp)
	.loc 3 1236 17 discriminator 1
	leaq	-24(%rbp), %rax
	movl	$1, %esi
	movq	%rax, %rdi
	call	_ZNK9__gnu_cxx17__normal_iteratorIPSt5arrayIxLm2EESt6vectorIS2_SaIS2_EEEmiEl
	movq	%rax, -16(%rbp)
	.loc 3 1236 9 discriminator 2
	leaq	-16(%rbp), %rax
	movq	%rax, %rdi
	call	_ZNK9__gnu_cxx17__normal_iteratorIPSt5arrayIxLm2EESt6vectorIS2_SaIS2_EEEdeEv
	.loc 3 1237 7
	movq	-8(%rbp), %rdx
	subq	%fs:40, %rdx
	je	.L125
	call	__stack_chk_fail@PLT
.L125:
	leave
	.cfi_def_cfa 7, 8
	ret
	.cfi_endproc
.LFE11169:
	.size	_ZNSt6vectorISt5arrayIxLm2EESaIS1_EE4backEv, .-_ZNSt6vectorISt5arrayIxLm2EESaIS1_EE4backEv
	.section	.text._ZN9__gnu_cxx5__ops16_Iter_equals_valIKcEC2ERS2_,"axG",@progbits,_ZN9__gnu_cxx5__ops16_Iter_equals_valIKcEC5ERS2_,comdat
	.align 2
	.weak	_ZN9__gnu_cxx5__ops16_Iter_equals_valIKcEC2ERS2_
	.type	_ZN9__gnu_cxx5__ops16_Iter_equals_valIKcEC2ERS2_, @function
_ZN9__gnu_cxx5__ops16_Iter_equals_valIKcEC2ERS2_:
.LFB11171:
	.loc 15 262 7
	.cfi_startproc
	endbr64
	pushq	%rbp
	.cfi_def_cfa_offset 16
	.cfi_offset 6, -16
	movq	%rsp, %rbp
	.cfi_def_cfa_register 6
	movq	%rdi, -8(%rbp)
	movq	%rsi, -16(%rbp)
.LBB175:
	.loc 15 263 4
	movq	-8(%rbp), %rax
	movq	-16(%rbp), %rdx
	movq	%rdx, (%rax)
.LBE175:
	.loc 15 264 9
	nop
	popq	%rbp
	.cfi_def_cfa 7, 8
	ret
	.cfi_endproc
.LFE11171:
	.size	_ZN9__gnu_cxx5__ops16_Iter_equals_valIKcEC2ERS2_, .-_ZN9__gnu_cxx5__ops16_Iter_equals_valIKcEC2ERS2_
	.weak	_ZN9__gnu_cxx5__ops16_Iter_equals_valIKcEC1ERS2_
	.set	_ZN9__gnu_cxx5__ops16_Iter_equals_valIKcEC1ERS2_,_ZN9__gnu_cxx5__ops16_Iter_equals_valIKcEC2ERS2_
	.section	.text._ZN9__gnu_cxxneIPcNSt7__cxx1112basic_stringIcSt11char_traitsIcESaIcEEEEEbRKNS_17__normal_iteratorIT_T0_EESD_,"axG",@progbits,_ZN9__gnu_cxxneIPcNSt7__cxx1112basic_stringIcSt11char_traitsIcESaIcEEEEEbRKNS_17__normal_iteratorIT_T0_EESD_,comdat
	.weak	_ZN9__gnu_cxxneIPcNSt7__cxx1112basic_stringIcSt11char_traitsIcESaIcEEEEEbRKNS_17__normal_iteratorIT_T0_EESD_
	.type	_ZN9__gnu_cxxneIPcNSt7__cxx1112basic_stringIcSt11char_traitsIcESaIcEEEEEbRKNS_17__normal_iteratorIT_T0_EESD_, @function
_ZN9__gnu_cxxneIPcNSt7__cxx1112basic_stringIcSt11char_traitsIcESaIcEEEEEbRKNS_17__normal_iteratorIT_T0_EESD_:
.LFB11173:
	.loc 11 1241 5
	.cfi_startproc
	endbr64
	pushq	%rbp
	.cfi_def_cfa_offset 16
	.cfi_offset 6, -16
	movq	%rsp, %rbp
	.cfi_def_cfa_register 6
	pushq	%rbx
	subq	$24, %rsp
	.cfi_offset 3, -24
	movq	%rdi, -24(%rbp)
	movq	%rsi, -32(%rbp)
	.loc 11 1244 24
	movq	-24(%rbp), %rax
	movq	%rax, %rdi
	call	_ZNK9__gnu_cxx17__normal_iteratorIPcNSt7__cxx1112basic_stringIcSt11char_traitsIcESaIcEEEE4baseEv
	.loc 11 1244 27 discriminator 1
	movq	(%rax), %rbx
	.loc 11 1244 40 discriminator 1
	movq	-32(%rbp), %rax
	movq	%rax, %rdi
	call	_ZNK9__gnu_cxx17__normal_iteratorIPcNSt7__cxx1112basic_stringIcSt11char_traitsIcESaIcEEEE4baseEv
	.loc 11 1244 27 discriminator 2
	movq	(%rax), %rax
	.loc 11 1244 41 discriminator 2
	cmpq	%rax, %rbx
	setne	%al
	.loc 11 1244 44
	movq	-8(%rbp), %rbx
	leave
	.cfi_def_cfa 7, 8
	ret
	.cfi_endproc
.LFE11173:
	.size	_ZN9__gnu_cxxneIPcNSt7__cxx1112basic_stringIcSt11char_traitsIcESaIcEEEEEbRKNS_17__normal_iteratorIT_T0_EESD_, .-_ZN9__gnu_cxxneIPcNSt7__cxx1112basic_stringIcSt11char_traitsIcESaIcEEEEEbRKNS_17__normal_iteratorIT_T0_EESD_
	.section	.text._ZN9__gnu_cxx17__normal_iteratorIPcNSt7__cxx1112basic_stringIcSt11char_traitsIcESaIcEEEEppEv,"axG",@progbits,_ZN9__gnu_cxx17__normal_iteratorIPcNSt7__cxx1112basic_stringIcSt11char_traitsIcESaIcEEEEppEv,comdat
	.align 2
	.weak	_ZN9__gnu_cxx17__normal_iteratorIPcNSt7__cxx1112basic_stringIcSt11char_traitsIcESaIcEEEEppEv
	.type	_ZN9__gnu_cxx17__normal_iteratorIPcNSt7__cxx1112basic_stringIcSt11char_traitsIcESaIcEEEEppEv, @function
_ZN9__gnu_cxx17__normal_iteratorIPcNSt7__cxx1112basic_stringIcSt11char_traitsIcESaIcEEEEppEv:
.LFB11174:
	.loc 11 1109 7
	.cfi_startproc
	endbr64
	pushq	%rbp
	.cfi_def_cfa_offset 16
	.cfi_offset 6, -16
	movq	%rsp, %rbp
	.cfi_def_cfa_register 6
	movq	%rdi, -8(%rbp)
	.loc 11 1111 4
	movq	-8(%rbp), %rax
	movq	(%rax), %rax
	.loc 11 1111 2
	leaq	1(%rax), %rdx
	movq	-8(%rbp), %rax
	movq	%rdx, (%rax)
	.loc 11 1112 10
	movq	-8(%rbp), %rax
	.loc 11 1113 7
	popq	%rbp
	.cfi_def_cfa 7, 8
	ret
	.cfi_endproc
.LFE11174:
	.size	_ZN9__gnu_cxx17__normal_iteratorIPcNSt7__cxx1112basic_stringIcSt11char_traitsIcESaIcEEEEppEv, .-_ZN9__gnu_cxx17__normal_iteratorIPcNSt7__cxx1112basic_stringIcSt11char_traitsIcESaIcEEEEppEv
	.section	.text._ZN9__gnu_cxx5__ops16_Iter_equals_valIKcEclINS_17__normal_iteratorIPcNSt7__cxx1112basic_stringIcSt11char_traitsIcESaIcEEEEEEEbT_,"axG",@progbits,_ZN9__gnu_cxx5__ops16_Iter_equals_valIKcEclINS_17__normal_iteratorIPcNSt7__cxx1112basic_stringIcSt11char_traitsIcESaIcEEEEEEEbT_,comdat
	.align 2
	.weak	_ZN9__gnu_cxx5__ops16_Iter_equals_valIKcEclINS_17__normal_iteratorIPcNSt7__cxx1112basic_stringIcSt11char_traitsIcESaIcEEEEEEEbT_
	.type	_ZN9__gnu_cxx5__ops16_Iter_equals_valIKcEclINS_17__normal_iteratorIPcNSt7__cxx1112basic_stringIcSt11char_traitsIcESaIcEEEEEEEbT_, @function
_ZN9__gnu_cxx5__ops16_Iter_equals_valIKcEclINS_17__normal_iteratorIPcNSt7__cxx1112basic_stringIcSt11char_traitsIcESaIcEEEEEEEbT_:
.LFB11175:
	.loc 15 269 2
	.cfi_startproc
	endbr64
	pushq	%rbp
	.cfi_def_cfa_offset 16
	.cfi_offset 6, -16
	movq	%rsp, %rbp
	.cfi_def_cfa_register 6
	subq	$16, %rsp
	movq	%rdi, -8(%rbp)
	movq	%rsi, -16(%rbp)
	.loc 15 270 11
	leaq	-16(%rbp), %rax
	movq	%rax, %rdi
	call	_ZNK9__gnu_cxx17__normal_iteratorIPcNSt7__cxx1112basic_stringIcSt11char_traitsIcESaIcEEEEdeEv
	.loc 15 270 17 discriminator 1
	movzbl	(%rax), %edx
	.loc 15 270 20 discriminator 1
	movq	-8(%rbp), %rax
	movq	(%rax), %rax
	.loc 15 270 17 discriminator 1
	movzbl	(%rax), %eax
	.loc 15 270 20 discriminator 1
	cmpb	%al, %dl
	sete	%al
	.loc 15 270 30
	leave
	.cfi_def_cfa 7, 8
	ret
	.cfi_endproc
.LFE11175:
	.size	_ZN9__gnu_cxx5__ops16_Iter_equals_valIKcEclINS_17__normal_iteratorIPcNSt7__cxx1112basic_stringIcSt11char_traitsIcESaIcEEEEEEEbT_, .-_ZN9__gnu_cxx5__ops16_Iter_equals_valIKcEclINS_17__normal_iteratorIPcNSt7__cxx1112basic_stringIcSt11char_traitsIcESaIcEEEEEEEbT_
	.section	.text._ZNSt15__new_allocatorISt5arrayIxLm2EEE10deallocateEPS1_m,"axG",@progbits,_ZNSt15__new_allocatorISt5arrayIxLm2EEE10deallocateEPS1_m,comdat
	.align 2
	.weak	_ZNSt15__new_allocatorISt5arrayIxLm2EEE10deallocateEPS1_m
	.type	_ZNSt15__new_allocatorISt5arrayIxLm2EEE10deallocateEPS1_m, @function
_ZNSt15__new_allocatorISt5arrayIxLm2EEE10deallocateEPS1_m:
.LFB11322:
	.loc 9 156 7
	.cfi_startproc
	endbr64
	pushq	%rbp
	.cfi_def_cfa_offset 16
	.cfi_offset 6, -16
	movq	%rsp, %rbp
	.cfi_def_cfa_register 6
	subq	$32, %rsp
	movq	%rdi, -8(%rbp)
	movq	%rsi, -16(%rbp)
	movq	%rdx, -24(%rbp)
	.loc 9 172 26
	movq	-24(%rbp), %rax
	salq	$4, %rax
	movq	%rax, %rdx
	movq	-16(%rbp), %rax
	movq	%rdx, %rsi
	movq	%rax, %rdi
	call	_ZdlPvm@PLT
	.loc 9 173 7
	leave
	.cfi_def_cfa 7, 8
	ret
	.cfi_endproc
.LFE11322:
	.size	_ZNSt15__new_allocatorISt5arrayIxLm2EEE10deallocateEPS1_m, .-_ZNSt15__new_allocatorISt5arrayIxLm2EEE10deallocateEPS1_m
	.section	.text._ZNSt12_Destroy_auxILb1EE9__destroyIPSt5arrayIxLm2EEEEvT_S5_,"axG",@progbits,_ZNSt12_Destroy_auxILb1EE9__destroyIPSt5arrayIxLm2EEEEvT_S5_,comdat
	.weak	_ZNSt12_Destroy_auxILb1EE9__destroyIPSt5arrayIxLm2EEEEvT_S5_
	.type	_ZNSt12_Destroy_auxILb1EE9__destroyIPSt5arrayIxLm2EEEEvT_S5_, @function
_ZNSt12_Destroy_auxILb1EE9__destroyIPSt5arrayIxLm2EEEEvT_S5_:
.LFB11323:
	.loc 16 172 9
	.cfi_startproc
	endbr64
	pushq	%rbp
	.cfi_def_cfa_offset 16
	.cfi_offset 6, -16
	movq	%rsp, %rbp
	.cfi_def_cfa_register 6
	movq	%rdi, -8(%rbp)
	movq	%rsi, -16(%rbp)
	.loc 16 172 57
	nop
	popq	%rbp
	.cfi_def_cfa 7, 8
	ret
	.cfi_endproc
.LFE11323:
	.size	_ZNSt12_Destroy_auxILb1EE9__destroyIPSt5arrayIxLm2EEEEvT_S5_, .-_ZNSt12_Destroy_auxILb1EE9__destroyIPSt5arrayIxLm2EEEEvT_S5_
	.section	.text._ZN9__gnu_cxx17__normal_iteratorIPSt5arrayIxLm2EESt6vectorIS2_SaIS2_EEEC2ERKS3_,"axG",@progbits,_ZN9__gnu_cxx17__normal_iteratorIPSt5arrayIxLm2EESt6vectorIS2_SaIS2_EEEC5ERKS3_,comdat
	.align 2
	.weak	_ZN9__gnu_cxx17__normal_iteratorIPSt5arrayIxLm2EESt6vectorIS2_SaIS2_EEEC2ERKS3_
	.type	_ZN9__gnu_cxx17__normal_iteratorIPSt5arrayIxLm2EESt6vectorIS2_SaIS2_EEEC2ERKS3_, @function
_ZN9__gnu_cxx17__normal_iteratorIPSt5arrayIxLm2EESt6vectorIS2_SaIS2_EEEC2ERKS3_:
.LFB11326:
	.loc 11 1076 7
	.cfi_startproc
	endbr64
	pushq	%rbp
	.cfi_def_cfa_offset 16
	.cfi_offset 6, -16
	movq	%rsp, %rbp
	.cfi_def_cfa_register 6
	movq	%rdi, -8(%rbp)
	movq	%rsi, -16(%rbp)
.LBB176:
	.loc 11 1077 9
	movq	-16(%rbp), %rax
	movq	(%rax), %rdx
	movq	-8(%rbp), %rax
	movq	%rdx, (%rax)
.LBE176:
	.loc 11 1077 27
	nop
	popq	%rbp
	.cfi_def_cfa 7, 8
	ret
	.cfi_endproc
.LFE11326:
	.size	_ZN9__gnu_cxx17__normal_iteratorIPSt5arrayIxLm2EESt6vectorIS2_SaIS2_EEEC2ERKS3_, .-_ZN9__gnu_cxx17__normal_iteratorIPSt5arrayIxLm2EESt6vectorIS2_SaIS2_EEEC2ERKS3_
	.weak	_ZN9__gnu_cxx17__normal_iteratorIPSt5arrayIxLm2EESt6vectorIS2_SaIS2_EEEC1ERKS3_
	.set	_ZN9__gnu_cxx17__normal_iteratorIPSt5arrayIxLm2EESt6vectorIS2_SaIS2_EEEC1ERKS3_,_ZN9__gnu_cxx17__normal_iteratorIPSt5arrayIxLm2EESt6vectorIS2_SaIS2_EEEC2ERKS3_
	.section	.text._ZNKSt6vectorISt5arrayIxLm2EESaIS1_EE12_M_check_lenEmPKc,"axG",@progbits,_ZNKSt6vectorISt5arrayIxLm2EESaIS1_EE12_M_check_lenEmPKc,comdat
	.align 2
	.weak	_ZNKSt6vectorISt5arrayIxLm2EESaIS1_EE12_M_check_lenEmPKc
	.type	_ZNKSt6vectorISt5arrayIxLm2EESaIS1_EE12_M_check_lenEmPKc, @function
_ZNKSt6vectorISt5arrayIxLm2EESaIS1_EE12_M_check_lenEmPKc:
.LFB11328:
	.loc 3 1896 7
	.cfi_startproc
	endbr64
	pushq	%rbp
	.cfi_def_cfa_offset 16
	.cfi_offset 6, -16
	movq	%rsp, %rbp
	.cfi_def_cfa_register 6
	pushq	%rbx
	subq	$72, %rsp
	.cfi_offset 3, -24
	movq	%rdi, -56(%rbp)
	movq	%rsi, -64(%rbp)
	movq	%rdx, -72(%rbp)
	.loc 3 1896 7
	movq	%fs:40, %rax
	movq	%rax, -24(%rbp)
	xorl	%eax, %eax
	.loc 3 1898 14
	movq	-56(%rbp), %rax
	movq	%rax, %rdi
	call	_ZNKSt6vectorISt5arrayIxLm2EESaIS1_EE8max_sizeEv
	movq	%rax, %rbx
	.loc 3 1898 23 discriminator 1
	movq	-56(%rbp), %rax
	movq	%rax, %rdi
	call	_ZNKSt6vectorISt5arrayIxLm2EESaIS1_EE4sizeEv
	.loc 3 1898 17 discriminator 2
	subq	%rax, %rbx
	movq	%rbx, %rdx
	.loc 3 1898 26 discriminator 2
	movq	-64(%rbp), %rax
	cmpq	%rax, %rdx
	setb	%al
	.loc 3 1898 2 discriminator 2
	testb	%al, %al
	je	.L138
	.loc 3 1899 24
	movq	-24(%rbp), %rax
	subq	%fs:40, %rax
	je	.L139
	call	__stack_chk_fail@PLT
.L139:
	movq	-72(%rbp), %rax
	movq	%rax, %rdi
	call	_ZSt20__throw_length_errorPKc@PLT
.L138:
	.loc 3 1901 30
	movq	-56(%rbp), %rax
	movq	%rax, %rdi
	call	_ZNKSt6vectorISt5arrayIxLm2EESaIS1_EE4sizeEv
	movq	%rax, %rbx
	.loc 3 1901 50 discriminator 1
	movq	-56(%rbp), %rax
	movq	%rax, %rdi
	call	_ZNKSt6vectorISt5arrayIxLm2EESaIS1_EE4sizeEv
	.loc 3 1901 50 is_stmt 0 discriminator 2
	movq	%rax, -40(%rbp)
	.loc 3 1901 45 is_stmt 1 discriminator 2
	leaq	-64(%rbp), %rdx
	leaq	-40(%rbp), %rax
	movq	%rdx, %rsi
	movq	%rax, %rdi
	call	_ZSt3maxImERKT_S2_S2_
	.loc 3 1901 33 discriminator 3
	movq	(%rax), %rax
	.loc 3 1901 18 discriminator 3
	addq	%rbx, %rax
	movq	%rax, -32(%rbp)
	.loc 3 1902 22
	movq	-56(%rbp), %rax
	movq	%rax, %rdi
	call	_ZNKSt6vectorISt5arrayIxLm2EESaIS1_EE4sizeEv
	.loc 3 1902 48 discriminator 1
	cmpq	%rax, -32(%rbp)
	jb	.L140
	.loc 3 1902 44 discriminator 2
	movq	-56(%rbp), %rax
	movq	%rax, %rdi
	call	_ZNKSt6vectorISt5arrayIxLm2EESaIS1_EE8max_sizeEv
	.loc 3 1902 25 discriminator 1
	cmpq	-32(%rbp), %rax
	jnb	.L141
.L140:
	.loc 3 1902 58 discriminator 3
	movq	-56(%rbp), %rax
	movq	%rax, %rdi
	call	_ZNKSt6vectorISt5arrayIxLm2EESaIS1_EE8max_sizeEv
	.loc 3 1902 48
	jmp	.L142
.L141:
	.loc 3 1902 48 is_stmt 0 discriminator 4
	movq	-32(%rbp), %rax
.L142:
	.loc 3 1903 7 is_stmt 1
	movq	-24(%rbp), %rdx
	subq	%fs:40, %rdx
	je	.L144
	call	__stack_chk_fail@PLT
.L144:
	movq	-8(%rbp), %rbx
	leave
	.cfi_def_cfa 7, 8
	ret
	.cfi_endproc
.LFE11328:
	.size	_ZNKSt6vectorISt5arrayIxLm2EESaIS1_EE12_M_check_lenEmPKc, .-_ZNKSt6vectorISt5arrayIxLm2EESaIS1_EE12_M_check_lenEmPKc
	.section	.text._ZNSt6vectorISt5arrayIxLm2EESaIS1_EE5beginEv,"axG",@progbits,_ZNSt6vectorISt5arrayIxLm2EESaIS1_EE5beginEv,comdat
	.align 2
	.weak	_ZNSt6vectorISt5arrayIxLm2EESaIS1_EE5beginEv
	.type	_ZNSt6vectorISt5arrayIxLm2EESaIS1_EE5beginEv, @function
_ZNSt6vectorISt5arrayIxLm2EESaIS1_EE5beginEv:
.LFB11329:
	.loc 3 873 7
	.cfi_startproc
	endbr64
	pushq	%rbp
	.cfi_def_cfa_offset 16
	.cfi_offset 6, -16
	movq	%rsp, %rbp
	.cfi_def_cfa_register 6
	subq	$32, %rsp
	movq	%rdi, -24(%rbp)
	.loc 3 873 7
	movq	%fs:40, %rax
	movq	%rax, -8(%rbp)
	xorl	%eax, %eax
	.loc 3 874 39
	movq	-24(%rbp), %rdx
	.loc 3 874 16
	leaq	-16(%rbp), %rax
	movq	%rdx, %rsi
	movq	%rax, %rdi
	call	_ZN9__gnu_cxx17__normal_iteratorIPSt5arrayIxLm2EESt6vectorIS2_SaIS2_EEEC1ERKS3_
	.loc 3 874 47 discriminator 1
	movq	-16(%rbp), %rax
	.loc 3 874 50
	movq	-8(%rbp), %rdx
	subq	%fs:40, %rdx
	je	.L147
	call	__stack_chk_fail@PLT
.L147:
	leave
	.cfi_def_cfa 7, 8
	ret
	.cfi_endproc
.LFE11329:
	.size	_ZNSt6vectorISt5arrayIxLm2EESaIS1_EE5beginEv, .-_ZNSt6vectorISt5arrayIxLm2EESaIS1_EE5beginEv
	.section	.text._ZN9__gnu_cxxmiIPSt5arrayIxLm2EESt6vectorIS2_SaIS2_EEEENS_17__normal_iteratorIT_T0_E15difference_typeERKSA_SD_,"axG",@progbits,_ZN9__gnu_cxxmiIPSt5arrayIxLm2EESt6vectorIS2_SaIS2_EEEENS_17__normal_iteratorIT_T0_E15difference_typeERKSA_SD_,comdat
	.weak	_ZN9__gnu_cxxmiIPSt5arrayIxLm2EESt6vectorIS2_SaIS2_EEEENS_17__normal_iteratorIT_T0_E15difference_typeERKSA_SD_
	.type	_ZN9__gnu_cxxmiIPSt5arrayIxLm2EESt6vectorIS2_SaIS2_EEEENS_17__normal_iteratorIT_T0_E15difference_typeERKSA_SD_, @function
_ZN9__gnu_cxxmiIPSt5arrayIxLm2EESt6vectorIS2_SaIS2_EEEENS_17__normal_iteratorIT_T0_E15difference_typeERKSA_SD_:
.LFB11330:
	.loc 11 1334 5
	.cfi_startproc
	endbr64
	pushq	%rbp
	.cfi_def_cfa_offset 16
	.cfi_offset 6, -16
	movq	%rsp, %rbp
	.cfi_def_cfa_register 6
	pushq	%rbx
	subq	$24, %rsp
	.cfi_offset 3, -24
	movq	%rdi, -24(%rbp)
	movq	%rsi, -32(%rbp)
	.loc 11 1337 24
	movq	-24(%rbp), %rax
	movq	%rax, %rdi
	call	_ZNK9__gnu_cxx17__normal_iteratorIPSt5arrayIxLm2EESt6vectorIS2_SaIS2_EEE4baseEv
	.loc 11 1337 27 discriminator 1
	movq	(%rax), %rbx
	.loc 11 1337 39 discriminator 1
	movq	-32(%rbp), %rax
	movq	%rax, %rdi
	call	_ZNK9__gnu_cxx17__normal_iteratorIPSt5arrayIxLm2EESt6vectorIS2_SaIS2_EEE4baseEv
	.loc 11 1337 27 discriminator 2
	movq	(%rax), %rax
	movq	%rbx, %rdx
	subq	%rax, %rdx
	.loc 11 1337 40 discriminator 2
	movq	%rdx, %rax
	sarq	$4, %rax
	.loc 11 1337 43
	movq	-8(%rbp), %rbx
	leave
	.cfi_def_cfa 7, 8
	ret
	.cfi_endproc
.LFE11330:
	.size	_ZN9__gnu_cxxmiIPSt5arrayIxLm2EESt6vectorIS2_SaIS2_EEEENS_17__normal_iteratorIT_T0_E15difference_typeERKSA_SD_, .-_ZN9__gnu_cxxmiIPSt5arrayIxLm2EESt6vectorIS2_SaIS2_EEEENS_17__normal_iteratorIT_T0_E15difference_typeERKSA_SD_
	.section	.text._ZNSt12_Vector_baseISt5arrayIxLm2EESaIS1_EE11_M_allocateEm,"axG",@progbits,_ZNSt12_Vector_baseISt5arrayIxLm2EESaIS1_EE11_M_allocateEm,comdat
	.align 2
	.weak	_ZNSt12_Vector_baseISt5arrayIxLm2EESaIS1_EE11_M_allocateEm
	.type	_ZNSt12_Vector_baseISt5arrayIxLm2EESaIS1_EE11_M_allocateEm, @function
_ZNSt12_Vector_baseISt5arrayIxLm2EESaIS1_EE11_M_allocateEm:
.LFB11331:
	.loc 3 378 7
	.cfi_startproc
	endbr64
	pushq	%rbp
	.cfi_def_cfa_offset 16
	.cfi_offset 6, -16
	movq	%rsp, %rbp
	.cfi_def_cfa_register 6
	subq	$32, %rsp
	movq	%rdi, -24(%rbp)
	movq	%rsi, -32(%rbp)
	.loc 3 381 18
	cmpq	$0, -32(%rbp)
	je	.L151
	.loc 3 381 34 discriminator 1
	movq	-24(%rbp), %rax
	movq	%rax, -16(%rbp)
	movq	-32(%rbp), %rax
	movq	%rax, -8(%rbp)
.LBB177:
.LBB178:
	.loc 10 482 28
	movq	-8(%rbp), %rcx
	movq	-16(%rbp), %rax
	movl	$0, %edx
	movq	%rcx, %rsi
	movq	%rax, %rdi
	call	_ZNSt15__new_allocatorISt5arrayIxLm2EEE8allocateEmPKv
	.loc 10 482 32
	nop
	jmp	.L153
.L151:
.LBE178:
.LBE177:
	.loc 3 381 18 discriminator 2
	movl	$0, %eax
.L153:
	.loc 3 382 7
	leave
	.cfi_def_cfa 7, 8
	ret
	.cfi_endproc
.LFE11331:
	.size	_ZNSt12_Vector_baseISt5arrayIxLm2EESaIS1_EE11_M_allocateEm, .-_ZNSt12_Vector_baseISt5arrayIxLm2EESaIS1_EE11_M_allocateEm
	.section	.text._ZNSt6vectorISt5arrayIxLm2EESaIS1_EE11_S_relocateEPS1_S4_S4_RS2_,"axG",@progbits,_ZNSt6vectorISt5arrayIxLm2EESaIS1_EE11_S_relocateEPS1_S4_S4_RS2_,comdat
	.weak	_ZNSt6vectorISt5arrayIxLm2EESaIS1_EE11_S_relocateEPS1_S4_S4_RS2_
	.type	_ZNSt6vectorISt5arrayIxLm2EESaIS1_EE11_S_relocateEPS1_S4_S4_RS2_, @function
_ZNSt6vectorISt5arrayIxLm2EESaIS1_EE11_S_relocateEPS1_S4_S4_RS2_:
.LFB11332:
	.loc 3 504 7
	.cfi_startproc
	endbr64
	pushq	%rbp
	.cfi_def_cfa_offset 16
	.cfi_offset 6, -16
	movq	%rsp, %rbp
	.cfi_def_cfa_register 6
	subq	$32, %rsp
	movq	%rdi, -8(%rbp)
	movq	%rsi, -16(%rbp)
	movq	%rdx, -24(%rbp)
	movq	%rcx, -32(%rbp)
	.loc 3 509 26
	movq	-32(%rbp), %rcx
	movq	-24(%rbp), %rdx
	movq	-16(%rbp), %rsi
	movq	-8(%rbp), %rax
	movq	%rax, %rdi
	call	_ZSt12__relocate_aIPSt5arrayIxLm2EES2_SaIS1_EET0_T_S5_S4_RT1_
	.loc 3 514 7
	leave
	.cfi_def_cfa 7, 8
	ret
	.cfi_endproc
.LFE11332:
	.size	_ZNSt6vectorISt5arrayIxLm2EESaIS1_EE11_S_relocateEPS1_S4_S4_RS2_, .-_ZNSt6vectorISt5arrayIxLm2EESaIS1_EE11_S_relocateEPS1_S4_S4_RS2_
	.section	.text._ZNK9__gnu_cxx17__normal_iteratorIPSt5arrayIxLm2EESt6vectorIS2_SaIS2_EEE4baseEv,"axG",@progbits,_ZNK9__gnu_cxx17__normal_iteratorIPSt5arrayIxLm2EESt6vectorIS2_SaIS2_EEE4baseEv,comdat
	.align 2
	.weak	_ZNK9__gnu_cxx17__normal_iteratorIPSt5arrayIxLm2EESt6vectorIS2_SaIS2_EEE4baseEv
	.type	_ZNK9__gnu_cxx17__normal_iteratorIPSt5arrayIxLm2EESt6vectorIS2_SaIS2_EEE4baseEv, @function
_ZNK9__gnu_cxx17__normal_iteratorIPSt5arrayIxLm2EESt6vectorIS2_SaIS2_EEE4baseEv:
.LFB11333:
	.loc 11 1162 7
	.cfi_startproc
	endbr64
	pushq	%rbp
	.cfi_def_cfa_offset 16
	.cfi_offset 6, -16
	movq	%rsp, %rbp
	.cfi_def_cfa_register 6
	movq	%rdi, -8(%rbp)
	.loc 11 1163 16
	movq	-8(%rbp), %rax
	.loc 11 1163 28
	popq	%rbp
	.cfi_def_cfa 7, 8
	ret
	.cfi_endproc
.LFE11333:
	.size	_ZNK9__gnu_cxx17__normal_iteratorIPSt5arrayIxLm2EESt6vectorIS2_SaIS2_EEE4baseEv, .-_ZNK9__gnu_cxx17__normal_iteratorIPSt5arrayIxLm2EESt6vectorIS2_SaIS2_EEE4baseEv
	.section	.text._ZNK9__gnu_cxx17__normal_iteratorIPSt5arrayIxLm2EESt6vectorIS2_SaIS2_EEEmiEl,"axG",@progbits,_ZNK9__gnu_cxx17__normal_iteratorIPSt5arrayIxLm2EESt6vectorIS2_SaIS2_EEEmiEl,comdat
	.align 2
	.weak	_ZNK9__gnu_cxx17__normal_iteratorIPSt5arrayIxLm2EESt6vectorIS2_SaIS2_EEEmiEl
	.type	_ZNK9__gnu_cxx17__normal_iteratorIPSt5arrayIxLm2EESt6vectorIS2_SaIS2_EEEmiEl, @function
_ZNK9__gnu_cxx17__normal_iteratorIPSt5arrayIxLm2EESt6vectorIS2_SaIS2_EEEmiEl:
.LFB11335:
	.loc 11 1157 7
	.cfi_startproc
	endbr64
	pushq	%rbp
	.cfi_def_cfa_offset 16
	.cfi_offset 6, -16
	movq	%rsp, %rbp
	.cfi_def_cfa_register 6
	subq	$48, %rsp
	movq	%rdi, -40(%rbp)
	movq	%rsi, -48(%rbp)
	.loc 11 1157 7
	movq	%fs:40, %rax
	movq	%rax, -8(%rbp)
	xorl	%eax, %eax
	.loc 11 1158 34
	movq	-40(%rbp), %rax
	movq	(%rax), %rax
	.loc 11 1158 47
	movq	-48(%rbp), %rdx
	.loc 11 1158 45
	salq	$4, %rdx
	negq	%rdx
	addq	%rdx, %rax
	movq	%rax, -24(%rbp)
	.loc 11 1158 16
	leaq	-24(%rbp), %rdx
	leaq	-16(%rbp), %rax
	movq	%rdx, %rsi
	movq	%rax, %rdi
	call	_ZN9__gnu_cxx17__normal_iteratorIPSt5arrayIxLm2EESt6vectorIS2_SaIS2_EEEC1ERKS3_
	.loc 11 1158 50 discriminator 1
	movq	-16(%rbp), %rax
	.loc 11 1158 53
	movq	-8(%rbp), %rdx
	subq	%fs:40, %rdx
	je	.L161
	call	__stack_chk_fail@PLT
.L161:
	leave
	.cfi_def_cfa 7, 8
	ret
	.cfi_endproc
.LFE11335:
	.size	_ZNK9__gnu_cxx17__normal_iteratorIPSt5arrayIxLm2EESt6vectorIS2_SaIS2_EEEmiEl, .-_ZNK9__gnu_cxx17__normal_iteratorIPSt5arrayIxLm2EESt6vectorIS2_SaIS2_EEEmiEl
	.section	.text._ZNK9__gnu_cxx17__normal_iteratorIPSt5arrayIxLm2EESt6vectorIS2_SaIS2_EEEdeEv,"axG",@progbits,_ZNK9__gnu_cxx17__normal_iteratorIPSt5arrayIxLm2EESt6vectorIS2_SaIS2_EEEdeEv,comdat
	.align 2
	.weak	_ZNK9__gnu_cxx17__normal_iteratorIPSt5arrayIxLm2EESt6vectorIS2_SaIS2_EEEdeEv
	.type	_ZNK9__gnu_cxx17__normal_iteratorIPSt5arrayIxLm2EESt6vectorIS2_SaIS2_EEEdeEv, @function
_ZNK9__gnu_cxx17__normal_iteratorIPSt5arrayIxLm2EESt6vectorIS2_SaIS2_EEEdeEv:
.LFB11336:
	.loc 11 1099 7
	.cfi_startproc
	endbr64
	pushq	%rbp
	.cfi_def_cfa_offset 16
	.cfi_offset 6, -16
	movq	%rsp, %rbp
	.cfi_def_cfa_register 6
	movq	%rdi, -8(%rbp)
	.loc 11 1100 17
	movq	-8(%rbp), %rax
	movq	(%rax), %rax
	.loc 11 1100 29
	popq	%rbp
	.cfi_def_cfa 7, 8
	ret
	.cfi_endproc
.LFE11336:
	.size	_ZNK9__gnu_cxx17__normal_iteratorIPSt5arrayIxLm2EESt6vectorIS2_SaIS2_EEEdeEv, .-_ZNK9__gnu_cxx17__normal_iteratorIPSt5arrayIxLm2EESt6vectorIS2_SaIS2_EEEdeEv
	.section	.text._ZNK9__gnu_cxx17__normal_iteratorIPcNSt7__cxx1112basic_stringIcSt11char_traitsIcESaIcEEEE4baseEv,"axG",@progbits,_ZNK9__gnu_cxx17__normal_iteratorIPcNSt7__cxx1112basic_stringIcSt11char_traitsIcESaIcEEEE4baseEv,comdat
	.align 2
	.weak	_ZNK9__gnu_cxx17__normal_iteratorIPcNSt7__cxx1112basic_stringIcSt11char_traitsIcESaIcEEEE4baseEv
	.type	_ZNK9__gnu_cxx17__normal_iteratorIPcNSt7__cxx1112basic_stringIcSt11char_traitsIcESaIcEEEE4baseEv, @function
_ZNK9__gnu_cxx17__normal_iteratorIPcNSt7__cxx1112basic_stringIcSt11char_traitsIcESaIcEEEE4baseEv:
.LFB11337:
	.loc 11 1162 7
	.cfi_startproc
	endbr64
	pushq	%rbp
	.cfi_def_cfa_offset 16
	.cfi_offset 6, -16
	movq	%rsp, %rbp
	.cfi_def_cfa_register 6
	movq	%rdi, -8(%rbp)
	.loc 11 1163 16
	movq	-8(%rbp), %rax
	.loc 11 1163 28
	popq	%rbp
	.cfi_def_cfa 7, 8
	ret
	.cfi_endproc
.LFE11337:
	.size	_ZNK9__gnu_cxx17__normal_iteratorIPcNSt7__cxx1112basic_stringIcSt11char_traitsIcESaIcEEEE4baseEv, .-_ZNK9__gnu_cxx17__normal_iteratorIPcNSt7__cxx1112basic_stringIcSt11char_traitsIcESaIcEEEE4baseEv
	.section	.text._ZNK9__gnu_cxx17__normal_iteratorIPcNSt7__cxx1112basic_stringIcSt11char_traitsIcESaIcEEEEdeEv,"axG",@progbits,_ZNK9__gnu_cxx17__normal_iteratorIPcNSt7__cxx1112basic_stringIcSt11char_traitsIcESaIcEEEEdeEv,comdat
	.align 2
	.weak	_ZNK9__gnu_cxx17__normal_iteratorIPcNSt7__cxx1112basic_stringIcSt11char_traitsIcESaIcEEEEdeEv
	.type	_ZNK9__gnu_cxx17__normal_iteratorIPcNSt7__cxx1112basic_stringIcSt11char_traitsIcESaIcEEEEdeEv, @function
_ZNK9__gnu_cxx17__normal_iteratorIPcNSt7__cxx1112basic_stringIcSt11char_traitsIcESaIcEEEEdeEv:
.LFB11338:
	.loc 11 1099 7
	.cfi_startproc
	endbr64
	pushq	%rbp
	.cfi_def_cfa_offset 16
	.cfi_offset 6, -16
	movq	%rsp, %rbp
	.cfi_def_cfa_register 6
	movq	%rdi, -8(%rbp)
	.loc 11 1100 17
	movq	-8(%rbp), %rax
	movq	(%rax), %rax
	.loc 11 1100 29
	popq	%rbp
	.cfi_def_cfa 7, 8
	ret
	.cfi_endproc
.LFE11338:
	.size	_ZNK9__gnu_cxx17__normal_iteratorIPcNSt7__cxx1112basic_stringIcSt11char_traitsIcESaIcEEEEdeEv, .-_ZNK9__gnu_cxx17__normal_iteratorIPcNSt7__cxx1112basic_stringIcSt11char_traitsIcESaIcEEEEdeEv
	.section	.text._ZNKSt6vectorISt5arrayIxLm2EESaIS1_EE8max_sizeEv,"axG",@progbits,_ZNKSt6vectorISt5arrayIxLm2EESaIS1_EE8max_sizeEv,comdat
	.align 2
	.weak	_ZNKSt6vectorISt5arrayIxLm2EESaIS1_EE8max_sizeEv
	.type	_ZNKSt6vectorISt5arrayIxLm2EESaIS1_EE8max_sizeEv, @function
_ZNKSt6vectorISt5arrayIxLm2EESaIS1_EE8max_sizeEv:
.LFB11440:
	.loc 3 998 7
	.cfi_startproc
	endbr64
	pushq	%rbp
	.cfi_def_cfa_offset 16
	.cfi_offset 6, -16
	movq	%rsp, %rbp
	.cfi_def_cfa_register 6
	subq	$16, %rsp
	movq	%rdi, -8(%rbp)
	.loc 3 999 47
	movq	-8(%rbp), %rax
	movq	%rax, %rdi
	call	_ZNKSt12_Vector_baseISt5arrayIxLm2EESaIS1_EE19_M_get_Tp_allocatorEv
	.loc 3 999 27 discriminator 1
	movq	%rax, %rdi
	call	_ZNSt6vectorISt5arrayIxLm2EESaIS1_EE11_S_max_sizeERKS2_
	.loc 3 999 52
	leave
	.cfi_def_cfa 7, 8
	ret
	.cfi_endproc
.LFE11440:
	.size	_ZNKSt6vectorISt5arrayIxLm2EESaIS1_EE8max_sizeEv, .-_ZNKSt6vectorISt5arrayIxLm2EESaIS1_EE8max_sizeEv
	.section	.text._ZSt12__relocate_aIPSt5arrayIxLm2EES2_SaIS1_EET0_T_S5_S4_RT1_,"axG",@progbits,_ZSt12__relocate_aIPSt5arrayIxLm2EES2_SaIS1_EET0_T_S5_S4_RT1_,comdat
	.weak	_ZSt12__relocate_aIPSt5arrayIxLm2EES2_SaIS1_EET0_T_S5_S4_RT1_
	.type	_ZSt12__relocate_aIPSt5arrayIxLm2EES2_SaIS1_EET0_T_S5_S4_RT1_, @function
_ZSt12__relocate_aIPSt5arrayIxLm2EES2_SaIS1_EET0_T_S5_S4_RT1_:
.LFB11442:
	.file 17 "/usr/include/c++/13/bits/stl_uninitialized.h"
	.loc 17 1141 5
	.cfi_startproc
	endbr64
	pushq	%rbp
	.cfi_def_cfa_offset 16
	.cfi_offset 6, -16
	movq	%rsp, %rbp
	.cfi_def_cfa_register 6
	pushq	%r12
	pushq	%rbx
	subq	$32, %rsp
	.cfi_offset 12, -24
	.cfi_offset 3, -32
	movq	%rdi, -24(%rbp)
	movq	%rsi, -32(%rbp)
	movq	%rdx, -40(%rbp)
	movq	%rcx, -48(%rbp)
	.loc 17 1147 33
	movq	-40(%rbp), %rax
	movq	%rax, %rdi
	call	_ZSt12__niter_baseIPSt5arrayIxLm2EEET_S3_
	movq	%rax, %r12
	.loc 17 1147 33 is_stmt 0 discriminator 1
	movq	-32(%rbp), %rax
	movq	%rax, %rdi
	call	_ZSt12__niter_baseIPSt5arrayIxLm2EEET_S3_
	movq	%rax, %rbx
	.loc 17 1147 33 discriminator 2
	movq	-24(%rbp), %rax
	movq	%rax, %rdi
	call	_ZSt12__niter_baseIPSt5arrayIxLm2EEET_S3_
	movq	%rax, %rdi
	.loc 17 1147 33 discriminator 3
	movq	-48(%rbp), %rax
	movq	%rax, %rcx
	movq	%r12, %rdx
	movq	%rbx, %rsi
	call	_ZSt14__relocate_a_1ISt5arrayIxLm2EES1_ENSt9enable_ifIXsrSt24__is_bitwise_relocatableIT_vE5valueEPS4_E4typeES6_S6_S6_RSaIT0_E
	.loc 17 1150 5 is_stmt 1
	addq	$32, %rsp
	popq	%rbx
	popq	%r12
	popq	%rbp
	.cfi_def_cfa 7, 8
	ret
	.cfi_endproc
.LFE11442:
	.size	_ZSt12__relocate_aIPSt5arrayIxLm2EES2_SaIS1_EET0_T_S5_S4_RT1_, .-_ZSt12__relocate_aIPSt5arrayIxLm2EES2_SaIS1_EET0_T_S5_S4_RT1_
	.section	.text._ZNSt6vectorISt5arrayIxLm2EESaIS1_EE11_S_max_sizeERKS2_,"axG",@progbits,_ZNSt6vectorISt5arrayIxLm2EESaIS1_EE11_S_max_sizeERKS2_,comdat
	.weak	_ZNSt6vectorISt5arrayIxLm2EESaIS1_EE11_S_max_sizeERKS2_
	.type	_ZNSt6vectorISt5arrayIxLm2EESaIS1_EE11_S_max_sizeERKS2_, @function
_ZNSt6vectorISt5arrayIxLm2EESaIS1_EE11_S_max_sizeERKS2_:
.LFB11528:
	.loc 3 1916 7
	.cfi_startproc
	endbr64
	pushq	%rbp
	.cfi_def_cfa_offset 16
	.cfi_offset 6, -16
	movq	%rsp, %rbp
	.cfi_def_cfa_register 6
	subq	$64, %rsp
	movq	%rdi, -56(%rbp)
	.loc 3 1916 7
	movq	%fs:40, %rax
	movq	%rax, -8(%rbp)
	xorl	%eax, %eax
	.loc 3 1921 15
	movabsq	$576460752303423487, %rax
	movq	%rax, -48(%rbp)
	movq	-56(%rbp), %rax
	movq	%rax, -32(%rbp)
	movq	-32(%rbp), %rax
	movq	%rax, -24(%rbp)
	movq	-24(%rbp), %rax
	movq	%rax, -16(%rbp)
.LBB179:
.LBB180:
.LBB181:
.LBB182:
.LBB183:
.LBB184:
	.loc 9 233 50
	movabsq	$576460752303423487, %rax
.LBE184:
.LBE183:
	.loc 9 183 28
	nop
.LBE182:
.LBE181:
	.loc 10 574 22
	nop
.LBE180:
.LBE179:
	.loc 3 1923 15 discriminator 1
	movq	%rax, -40(%rbp)
	.loc 3 1924 19
	leaq	-40(%rbp), %rdx
	leaq	-48(%rbp), %rax
	movq	%rdx, %rsi
	movq	%rax, %rdi
	call	_ZSt3minImERKT_S2_S2_
	.loc 3 1924 41 discriminator 1
	movq	(%rax), %rax
	.loc 3 1925 7
	movq	-8(%rbp), %rdx
	subq	%fs:40, %rdx
	je	.L177
	call	__stack_chk_fail@PLT
.L177:
	leave
	.cfi_def_cfa 7, 8
	ret
	.cfi_endproc
.LFE11528:
	.size	_ZNSt6vectorISt5arrayIxLm2EESaIS1_EE11_S_max_sizeERKS2_, .-_ZNSt6vectorISt5arrayIxLm2EESaIS1_EE11_S_max_sizeERKS2_
	.section	.text._ZNKSt12_Vector_baseISt5arrayIxLm2EESaIS1_EE19_M_get_Tp_allocatorEv,"axG",@progbits,_ZNKSt12_Vector_baseISt5arrayIxLm2EESaIS1_EE19_M_get_Tp_allocatorEv,comdat
	.align 2
	.weak	_ZNKSt12_Vector_baseISt5arrayIxLm2EESaIS1_EE19_M_get_Tp_allocatorEv
	.type	_ZNKSt12_Vector_baseISt5arrayIxLm2EESaIS1_EE19_M_get_Tp_allocatorEv, @function
_ZNKSt12_Vector_baseISt5arrayIxLm2EESaIS1_EE19_M_get_Tp_allocatorEv:
.LFB11529:
	.loc 3 306 7
	.cfi_startproc
	endbr64
	pushq	%rbp
	.cfi_def_cfa_offset 16
	.cfi_offset 6, -16
	movq	%rsp, %rbp
	.cfi_def_cfa_register 6
	movq	%rdi, -8(%rbp)
	.loc 3 307 22
	movq	-8(%rbp), %rax
	.loc 3 307 31
	popq	%rbp
	.cfi_def_cfa 7, 8
	ret
	.cfi_endproc
.LFE11529:
	.size	_ZNKSt12_Vector_baseISt5arrayIxLm2EESaIS1_EE19_M_get_Tp_allocatorEv, .-_ZNKSt12_Vector_baseISt5arrayIxLm2EESaIS1_EE19_M_get_Tp_allocatorEv
	.section	.text._ZNSt15__new_allocatorISt5arrayIxLm2EEE8allocateEmPKv,"axG",@progbits,_ZNSt15__new_allocatorISt5arrayIxLm2EEE8allocateEmPKv,comdat
	.align 2
	.weak	_ZNSt15__new_allocatorISt5arrayIxLm2EEE8allocateEmPKv
	.type	_ZNSt15__new_allocatorISt5arrayIxLm2EEE8allocateEmPKv, @function
_ZNSt15__new_allocatorISt5arrayIxLm2EEE8allocateEmPKv:
.LFB11530:
	.loc 9 126 7
	.cfi_startproc
	endbr64
	pushq	%rbp
	.cfi_def_cfa_offset 16
	.cfi_offset 6, -16
	movq	%rsp, %rbp
	.cfi_def_cfa_register 6
	subq	$48, %rsp
	movq	%rdi, -24(%rbp)
	movq	%rsi, -32(%rbp)
	movq	%rdx, -40(%rbp)
	movq	-24(%rbp), %rax
	movq	%rax, -8(%rbp)
.LBB185:
.LBB186:
	.loc 9 233 50
	movabsq	$576460752303423487, %rax
.LBE186:
.LBE185:
	.loc 9 134 27 discriminator 1
	cmpq	-32(%rbp), %rax
	setb	%al
	.loc 9 134 22 discriminator 1
	movzbl	%al, %eax
	.loc 9 134 22 is_stmt 0 discriminator 2
	testq	%rax, %rax
	setne	%al
	.loc 9 134 2 is_stmt 1 discriminator 2
	testb	%al, %al
	je	.L182
	.loc 9 138 6
	movabsq	$1152921504606846975, %rax
	cmpq	-32(%rbp), %rax
	jnb	.L183
	.loc 9 139 41
	call	_ZSt28__throw_bad_array_new_lengthv@PLT
.L183:
	.loc 9 140 28
	call	_ZSt17__throw_bad_allocv@PLT
.L182:
	.loc 9 151 48
	movq	-32(%rbp), %rax
	salq	$4, %rax
	movq	%rax, %rdi
	call	_Znwm@PLT
	.loc 9 151 67
	nop
	.loc 9 152 7
	leave
	.cfi_def_cfa 7, 8
	ret
	.cfi_endproc
.LFE11530:
	.size	_ZNSt15__new_allocatorISt5arrayIxLm2EEE8allocateEmPKv, .-_ZNSt15__new_allocatorISt5arrayIxLm2EEE8allocateEmPKv
	.section	.text._ZSt12__niter_baseIPSt5arrayIxLm2EEET_S3_,"axG",@progbits,_ZSt12__niter_baseIPSt5arrayIxLm2EEET_S3_,comdat
	.weak	_ZSt12__niter_baseIPSt5arrayIxLm2EEET_S3_
	.type	_ZSt12__niter_baseIPSt5arrayIxLm2EEET_S3_, @function
_ZSt12__niter_baseIPSt5arrayIxLm2EEET_S3_:
.LFB11531:
	.loc 2 316 5
	.cfi_startproc
	endbr64
	pushq	%rbp
	.cfi_def_cfa_offset 16
	.cfi_offset 6, -16
	movq	%rsp, %rbp
	.cfi_def_cfa_register 6
	movq	%rdi, -8(%rbp)
	.loc 2 318 14
	movq	-8(%rbp), %rax
	.loc 2 318 20
	popq	%rbp
	.cfi_def_cfa 7, 8
	ret
	.cfi_endproc
.LFE11531:
	.size	_ZSt12__niter_baseIPSt5arrayIxLm2EEET_S3_, .-_ZSt12__niter_baseIPSt5arrayIxLm2EEET_S3_
	.section	.text._ZSt14__relocate_a_1ISt5arrayIxLm2EES1_ENSt9enable_ifIXsrSt24__is_bitwise_relocatableIT_vE5valueEPS4_E4typeES6_S6_S6_RSaIT0_E,"axG",@progbits,_ZSt14__relocate_a_1ISt5arrayIxLm2EES1_ENSt9enable_ifIXsrSt24__is_bitwise_relocatableIT_vE5valueEPS4_E4typeES6_S6_S6_RSaIT0_E,comdat
	.weak	_ZSt14__relocate_a_1ISt5arrayIxLm2EES1_ENSt9enable_ifIXsrSt24__is_bitwise_relocatableIT_vE5valueEPS4_E4typeES6_S6_S6_RSaIT0_E
	.type	_ZSt14__relocate_a_1ISt5arrayIxLm2EES1_ENSt9enable_ifIXsrSt24__is_bitwise_relocatableIT_vE5valueEPS4_E4typeES6_S6_S6_RSaIT0_E, @function
_ZSt14__relocate_a_1ISt5arrayIxLm2EES1_ENSt9enable_ifIXsrSt24__is_bitwise_relocatableIT_vE5valueEPS4_E4typeES6_S6_S6_RSaIT0_E:
.LFB11532:
	.loc 17 1114 5
	.cfi_startproc
	endbr64
	pushq	%rbp
	.cfi_def_cfa_offset 16
	.cfi_offset 6, -16
	movq	%rsp, %rbp
	.cfi_def_cfa_register 6
	subq	$48, %rsp
	movq	%rdi, -24(%rbp)
	movq	%rsi, -32(%rbp)
	movq	%rdx, -40(%rbp)
	movq	%rcx, -48(%rbp)
	.loc 17 1118 34
	movq	-32(%rbp), %rax
	subq	-24(%rbp), %rax
	.loc 17 1118 17
	sarq	$4, %rax
	movq	%rax, -8(%rbp)
	.loc 17 1119 7
	cmpq	$0, -8(%rbp)
	jle	.L188
	.loc 17 1131 41
	movq	-8(%rbp), %rax
	.loc 17 1131 21
	salq	$4, %rax
	movq	%rax, %rdx
	movq	-24(%rbp), %rcx
	movq	-40(%rbp), %rax
	movq	%rcx, %rsi
	movq	%rax, %rdi
	call	memmove@PLT
.L188:
	.loc 17 1133 25
	movq	-8(%rbp), %rax
	.loc 17 1133 23
	salq	$4, %rax
	movq	%rax, %rdx
	.loc 17 1133 25
	movq	-40(%rbp), %rax
	addq	%rdx, %rax
	.loc 17 1134 5
	leave
	.cfi_def_cfa 7, 8
	ret
	.cfi_endproc
.LFE11532:
	.size	_ZSt14__relocate_a_1ISt5arrayIxLm2EES1_ENSt9enable_ifIXsrSt24__is_bitwise_relocatableIT_vE5valueEPS4_E4typeES6_S6_S6_RSaIT0_E, .-_ZSt14__relocate_a_1ISt5arrayIxLm2EES1_ENSt9enable_ifIXsrSt24__is_bitwise_relocatableIT_vE5valueEPS4_E4typeES6_S6_S6_RSaIT0_E
	.section	.rodata
	.type	_ZNSt8__detail30__integer_to_chars_is_unsignedIjEE, @object
	.size	_ZNSt8__detail30__integer_to_chars_is_unsignedIjEE, 1
_ZNSt8__detail30__integer_to_chars_is_unsignedIjEE:
	.byte	1
	.type	_ZNSt8__detail30__integer_to_chars_is_unsignedImEE, @object
	.size	_ZNSt8__detail30__integer_to_chars_is_unsignedImEE, 1
_ZNSt8__detail30__integer_to_chars_is_unsignedImEE:
	.byte	1
	.type	_ZNSt8__detail30__integer_to_chars_is_unsignedIyEE, @object
	.size	_ZNSt8__detail30__integer_to_chars_is_unsignedIyEE, 1
_ZNSt8__detail30__integer_to_chars_is_unsignedIyEE:
	.byte	1
	.type	_ZSt12__is_ratio_vISt5ratioILl1ELl1000000000EEE, @object
	.size	_ZSt12__is_ratio_vISt5ratioILl1ELl1000000000EEE, 1
_ZSt12__is_ratio_vISt5ratioILl1ELl1000000000EEE:
	.byte	1
	.type	_ZSt12__is_ratio_vISt5ratioILl1ELl1EEE, @object
	.size	_ZSt12__is_ratio_vISt5ratioILl1ELl1EEE, 1
_ZSt12__is_ratio_vISt5ratioILl1ELl1EEE:
	.byte	1
	.type	_ZSt12__is_ratio_vISt5ratioILl1000000000ELl1EEE, @object
	.size	_ZSt12__is_ratio_vISt5ratioILl1000000000ELl1EEE, 1
_ZSt12__is_ratio_vISt5ratioILl1000000000ELl1EEE:
	.byte	1
	.type	_ZNSt8__detail30__integer_to_chars_is_unsignedIoEE, @object
	.size	_ZNSt8__detail30__integer_to_chars_is_unsignedIoEE, 1
_ZNSt8__detail30__integer_to_chars_is_unsignedIoEE:
	.byte	1
	.text
.Letext0:
	.file 18 "/usr/include/x86_64-linux-gnu/bits/types.h"
	.file 19 "/usr/include/x86_64-linux-gnu/bits/setjmp.h"
	.file 20 "/usr/include/x86_64-linux-gnu/bits/types/__sigset_t.h"
	.file 21 "/usr/include/x86_64-linux-gnu/bits/types/struct___jmp_buf_tag.h"
	.file 22 "/usr/include/setjmp.h"
	.file 23 "/usr/include/c++/13/csetjmp"
	.file 24 "/usr/include/c++/13/cstdarg"
	.file 25 "/usr/include/c++/13/cstddef"
	.file 26 "/usr/include/c++/13/cstdlib"
	.file 27 "/usr/include/c++/13/cstdint"
	.file 28 "/usr/include/c++/13/type_traits"
	.file 29 "/usr/include/x86_64-linux-gnu/c++/13/bits/c++config.h"
	.file 30 "/usr/include/c++/13/debug/debug.h"
	.file 31 "/usr/include/c++/13/cwchar"
	.file 32 "/usr/include/c++/13/bits/char_traits.h"
	.file 33 "/usr/include/c++/13/clocale"
	.file 34 "/usr/include/c++/13/string_view"
	.file 35 "/usr/include/c++/13/cstdio"
	.file 36 "/usr/include/c++/13/initializer_list"
	.file 37 "/usr/include/c++/13/bits/charconv.h"
	.file 38 "/usr/include/c++/13/functional"
	.file 39 "/usr/include/c++/13/bits/stringfwd.h"
	.file 40 "/usr/include/c++/13/bits/exception_ptr.h"
	.file 41 "/usr/include/c++/13/bits/ios_base.h"
	.file 42 "/usr/include/c++/13/bits/shared_ptr_base.h"
	.file 43 "/usr/include/c++/13/cmath"
	.file 44 "/usr/include/c++/13/csignal"
	.file 45 "/usr/include/c++/13/cstring"
	.file 46 "/usr/include/c++/13/ctime"
	.file 47 "/usr/include/c++/13/cwctype"
	.file 48 "/usr/include/c++/13/ostream"
	.file 49 "/usr/include/c++/13/istream"
	.file 50 "/usr/include/c++/13/fenv.h"
	.file 51 "/usr/include/c++/13/cfenv"
	.file 52 "/usr/include/c++/13/cinttypes"
	.file 53 "/usr/include/c++/13/cuchar"
	.file 54 "/usr/include/c++/13/bits/stl_iterator_base_types.h"
	.file 55 "/usr/include/c++/13/iosfwd"
	.file 56 "/usr/include/c++/13/iostream"
	.file 57 "/usr/include/c++/13/bits/chrono.h"
	.file 58 "/usr/include/c++/13/bits/algorithmfwd.h"
	.file 59 "/usr/include/c++/13/bits/fs_fwd.h"
	.file 60 "/usr/include/c++/13/bits/fs_path.h"
	.file 61 "/usr/include/c++/13/bits/regex_constants.h"
	.file 62 "/usr/include/c++/13/ratio"
	.file 63 "/usr/include/c++/13/bits/functexcept.h"
	.file 64 "/usr/include/c++/13/bits/basic_ios.h"
	.file 65 "/usr/lib/gcc/x86_64-linux-gnu/13/include/stdarg.h"
	.file 66 "<built-in>"
	.file 67 "/usr/lib/gcc/x86_64-linux-gnu/13/include/stddef.h"
	.file 68 "/usr/include/stdlib.h"
	.file 69 "/usr/include/x86_64-linux-gnu/bits/types/clock_t.h"
	.file 70 "/usr/include/x86_64-linux-gnu/bits/types/time_t.h"
	.file 71 "/usr/include/x86_64-linux-gnu/bits/stdint-intn.h"
	.file 72 "/usr/include/x86_64-linux-gnu/bits/types/struct_timespec.h"
	.file 73 "/usr/include/c++/13/bits/atomic_base.h"
	.file 74 "/usr/include/c++/13/ext/concurrence.h"
	.file 75 "/usr/include/x86_64-linux-gnu/bits/stdint-uintn.h"
	.file 76 "/usr/include/x86_64-linux-gnu/bits/stdint-least.h"
	.file 77 "/usr/include/stdint.h"
	.file 78 "/usr/include/c++/13/pstl/execution_defs.h"
	.file 79 "/usr/include/x86_64-linux-gnu/bits/types/wint_t.h"
	.file 80 "/usr/include/x86_64-linux-gnu/bits/types/__mbstate_t.h"
	.file 81 "/usr/include/x86_64-linux-gnu/bits/types/mbstate_t.h"
	.file 82 "/usr/include/x86_64-linux-gnu/bits/types/__FILE.h"
	.file 83 "/usr/include/x86_64-linux-gnu/bits/types/struct_FILE.h"
	.file 84 "/usr/include/x86_64-linux-gnu/bits/types/FILE.h"
	.file 85 "/usr/include/wchar.h"
	.file 86 "/usr/include/x86_64-linux-gnu/bits/types/struct_tm.h"
	.file 87 "/usr/include/locale.h"
	.file 88 "/usr/include/x86_64-linux-gnu/bits/types/__fpos_t.h"
	.file 89 "/usr/include/stdio.h"
	.file 90 "/usr/include/math.h"
	.file 91 "/usr/include/x86_64-linux-gnu/bits/types/sig_atomic_t.h"
	.file 92 "/usr/include/signal.h"
	.file 93 "/usr/include/string.h"
	.file 94 "/usr/include/time.h"
	.file 95 "/usr/include/x86_64-linux-gnu/bits/wctype-wchar.h"
	.file 96 "/usr/include/wctype.h"
	.file 97 "/usr/include/x86_64-linux-gnu/bits/fenv.h"
	.file 98 "/usr/include/inttypes.h"
	.file 99 "/usr/include/uchar.h"
	.file 100 "/usr/include/c++/13/bits/memory_resource.h"
	.file 101 "/usr/include/c++/13/future"
	.section	.data.rel.local.DW.ref.__gxx_personality_v0,"awG",@progbits,DW.ref.__gxx_personality_v0,comdat
	.align 8
	.type	DW.ref.__gxx_personality_v0, @object
	.size	DW.ref.__gxx_personality_v0, 8
DW.ref.__gxx_personality_v0:
	.quad	__gxx_personality_v0
	.ident	"GCC: (Ubuntu 13.3.0-6ubuntu2~24.04) 13.3.0"
	.section	.note.GNU-stack,"",@progbits
	.section	.note.gnu.property,"a"
	.align 8
	.long	1f - 0f
	.long	4f - 1f
	.long	5
0:
	.string	"GNU"
1:
	.align 8
	.long	0xc0000002
	.long	3f - 2f
2:
	.long	0x3
3:
	.align 8
4:
